******************************************************************************
                  TI ARM Linker PC v16.9.4                     
******************************************************************************
>> Linked Tue Jul 31 15:36:11 2018

OUTPUT FILE NAME:   <simple_peripheral_cc2650lp_app.out>
ENTRY POINT SYMBOL: "ResetISR"  address: 00006879


MEMORY CONFIGURATION

         name            origin    length      used     unused   attr    fill
----------------------  --------  ---------  --------  --------  ----  --------
  FLASH                 00000000   0000f000  000090c6  00005f3a  R  X
  FLASH_LAST_PAGE       0001f000   00001000  00000058  00000fa8  R  X
  SRAM                  20000000   00004320  000023cb  00001f55  RW X


SEGMENT ALLOCATION MAP

run origin  load origin   length   init length attrs members
----------  ----------- ---------- ----------- ----- -------
00000000    00000000    000090d0   000090d0    r-x
  00000000    00000000    0000003c   0000003c    r-- .resetVecs
  0000003c    0000003c    000000c4   000000c4    r-x .text.1
  00000100    00000100    0000003c   0000003c    r-- .const:ti_sysbios_knl_Task_Object__PARAMS__C
  0000013c    0000013c    00000034   00000034    r-- .const:ti_sysbios_knl_Mailbox_Object__PARAMS__C
  00000170    00000170    00000030   00000030    r-- .const:ti_sysbios_family_arm_m3_Hwi_Object__PARAMS__C
  000001a0    000001a0    0000002c   0000002c    r-- .const:ti_sysbios_hal_Hwi_Object__PARAMS__C
  000001cc    000001cc    00000028   00000028    r-- .const:ti_sysbios_heaps_HeapMem_Module__FXNS__C
  000001f4    000001f4    00000028   00000028    r-- .const:ti_sysbios_knl_Swi_Object__PARAMS__C
  0000021c    0000021c    00000024   00000024    r-- .const:ti_sysbios_gates_GateHwi_Module__FXNS__C
  00000240    00000240    00000024   00000024    r-- .const:ti_sysbios_gates_GateMutex_Module__FXNS__C
  00000264    00000264    00000024   00000024    r-- .const:ti_sysbios_heaps_HeapMem_Object__PARAMS__C
  00000288    00000288    00000024   00000024    r-- .const:ti_sysbios_knl_Clock_Object__PARAMS__C
  000002ac    000002ac    00000024   00000024    r-- .const:ti_sysbios_knl_Semaphore_Object__PARAMS__C
  000002d0    000002d0    00000020   00000020    r-- .const:ti_sysbios_family_arm_m3_Hwi_Object__DESC__C
  000002f0    000002f0    00000020   00000020    r-- .const:ti_sysbios_gates_GateHwi_Object__DESC__C
  00000310    00000310    00000020   00000020    r-- .const:ti_sysbios_gates_GateMutex_Object__DESC__C
  00000330    00000330    00000020   00000020    r-- .const:ti_sysbios_hal_Hwi_Object__DESC__C
  00000350    00000350    00000020   00000020    r-- .const:ti_sysbios_heaps_HeapMem_Object__DESC__C
  00000370    00000370    00000020   00000020    r-- .const:ti_sysbios_knl_Clock_Object__DESC__C
  00000390    00000390    00000020   00000020    r-- .const:ti_sysbios_knl_Mailbox_Object__DESC__C
  000003b0    000003b0    00000020   00000020    r-- .const:ti_sysbios_knl_Queue_Object__DESC__C
  000003d0    000003d0    00000020   00000020    r-- .const:ti_sysbios_knl_Semaphore_Object__DESC__C
  000003f0    000003f0    00000020   00000020    r-- .const:ti_sysbios_knl_Swi_Object__DESC__C
  00000410    00000410    00000020   00000020    r-- .const:ti_sysbios_knl_Task_Object__DESC__C
  00000430    00000430    00000018   00000018    r-- .const:ti_sysbios_gates_GateHwi_Object__PARAMS__C
  00000448    00000448    00000018   00000018    r-- .const:ti_sysbios_gates_GateMutex_Object__PARAMS__C
  00000460    00000460    00000018   00000018    r-- .const:ti_sysbios_knl_Queue_Object__PARAMS__C
  00000478    00000478    00000008   00000008    r-- .const:ti_sysbios_knl_Idle_funcList__C
  00000480    00000480    00000004   00000004    r-x .text.2
  00000484    00000484    00000004   00000004    r-- .const:ti_sysbios_family_arm_cc26xx_Timer_startupNeeded__C
  00000488    00000488    00000004   00000004    r-- .const:ti_sysbios_family_arm_m3_Hwi_E_alreadyDefined__C
  0000048c    0000048c    00000004   00000004    r-- .const:ti_sysbios_family_arm_m3_Hwi_E_hwiLimitExceeded__C
  00000490    00000490    00000004   00000004    r-- .const:ti_sysbios_family_arm_m3_Hwi_NUM_INTERRUPTS__C
  00000494    00000494    00000004   00000004    r-- .const:ti_sysbios_family_arm_m3_Hwi_Object__count__C
  00000498    00000498    00000004   00000004    r-- .const:ti_sysbios_family_arm_m3_Hwi_Object__table__C
  0000049c    0000049c    00000004   00000004    r-- .const:ti_sysbios_family_arm_m3_Hwi_ccr__C
  000004a0    000004a0    00000004   00000004    r-- .const:ti_sysbios_family_arm_m3_Hwi_excHandlerFunc__C
  000004a4    000004a4    00000004   00000004    r-- .const:ti_sysbios_family_arm_m3_Hwi_nullIsrFunc__C
  000004a8    000004a8    00000004   00000004    r-- .const:ti_sysbios_family_arm_m3_Hwi_numSparseInterrupts__C
  000004ac    000004ac    00000004   00000004    r-- .const:ti_sysbios_family_arm_m3_Hwi_priGroup__C
  000004b0    000004b0    00000004   00000004    r-- .const:ti_sysbios_family_arm_m3_TaskSupport_stackAlignment__C
  000004b4    000004b4    00000004   00000004    r-- .const:ti_sysbios_heaps_HeapMem_E_memory__C
  000004b8    000004b8    00000004   00000004    r-- .const:ti_sysbios_heaps_HeapMem_Module__gateObj__C
  000004bc    000004bc    00000004   00000004    r-- .const:ti_sysbios_heaps_HeapMem_Object__count__C
  000004c0    000004c0    00000004   00000004    r-- .const:ti_sysbios_heaps_HeapMem_Object__table__C
  000004c4    000004c4    00000004   00000004    r-- .const:ti_sysbios_heaps_HeapMem_reqAlign__C
  000004c8    000004c8    00000004   00000004    r-- .const:ti_sysbios_knl_Clock_serviceMargin__C
  000004cc    000004cc    00000004   00000004    r-- .const:ti_sysbios_knl_Mailbox_Object__count__C
  000004d0    000004d0    00000004   00000004    r-- .const:ti_sysbios_knl_Mailbox_Object__table__C
  000004d4    000004d4    00000004   00000004    r-- .const:ti_sysbios_knl_Queue_Object__count__C
  000004d8    000004d8    00000004   00000004    r-- .const:ti_sysbios_knl_Queue_Object__table__C
  000004dc    000004dc    00000004   00000004    r-- .const:ti_sysbios_knl_Swi_Object__count__C
  000004e0    000004e0    00000004   00000004    r-- .const:ti_sysbios_knl_Swi_Object__table__C
  000004e4    000004e4    00000004   00000004    r-- .const:ti_sysbios_knl_Swi_numPriorities__C
  000004e8    000004e8    00000004   00000004    r-- .const:ti_sysbios_knl_Task_Object__count__C
  000004ec    000004ec    00000004   00000004    r-- .const:ti_sysbios_knl_Task_Object__table__C
  000004f0    000004f0    00000004   00000004    r-- .const:ti_sysbios_knl_Task_allBlockedFunc__C
  000004f4    000004f4    00000004   00000004    r-- .const:ti_sysbios_knl_Task_defaultStackHeap__C
  000004f8    000004f8    00000004   00000004    r-- .const:ti_sysbios_knl_Task_defaultStackSize__C
  000004fc    000004fc    00000004   00000004    r-- .const:ti_sysbios_knl_Task_numConstructedTasks__C
  00000500    00000500    00000002   00000002    r-x .text.3
  00000502    00000502    00000002   00000002    r-- .const:ti_sysbios_family_arm_cc26xx_Timer_Module__id__C
  00000504    00000504    00000002   00000002    r-- .const:ti_sysbios_family_arm_cc26xx_TimestampProvider_useClockTimer__C
  00000506    00000506    00000002   00000002    r-- .const:ti_sysbios_family_arm_m3_Hwi_Module__id__C
  00000508    00000508    00000002   00000002    r-- .const:ti_sysbios_gates_GateHwi_Module__id__C
  0000050a    0000050a    00000002   00000002    r-- .const:ti_sysbios_gates_GateMutex_Module__id__C
  0000050c    0000050c    00000002   00000002    r-- .const:ti_sysbios_heaps_HeapMem_Module__id__C
  0000050e    0000050e    00000002   00000002    r-- .const:ti_sysbios_knl_Task_initStackFlag__C
  00000510    00000510    00000001   00000001    r-- .const:ti_sysbios_knl_Clock_tickMode__C
  00000514    00000514    00000008   00000008    r-- .const:xdc_runtime_Startup_firstFxns__C
  0000051c    0000051c    00000008   00000008    r-- .const:xdc_runtime_Startup_lastFxns__C
  00000524    00000524    00000004   00000004    r-- .const:xdc_runtime_Assert_E_assertFailed__C
  00000528    00000528    00000004   00000004    r-- .const:xdc_runtime_Error_E_memory__C
  0000052c    0000052c    00000004   00000004    r-- .const:xdc_runtime_Error_policyFxn__C
  00000530    00000530    00000004   00000004    r-- .const:xdc_runtime_IGateProvider_Interface__BASE__C
  00000534    00000534    00000004   00000004    r-- .const:xdc_runtime_IHeap_Interface__BASE__C
  00000538    00000538    00000004   00000004    r-- .const:xdc_runtime_IModule_Interface__BASE__C
  0000053c    0000053c    00000004   00000004    r-- .const:xdc_runtime_Main_Module__diagsEnabled__C
  00000540    00000540    00000004   00000004    r-- .const:xdc_runtime_Main_Module__diagsIncluded__C
  00000544    00000544    00000004   00000004    r-- .const:xdc_runtime_Main_Module__diagsMask__C
  00000548    00000548    00000004   00000004    r-- .const:xdc_runtime_Memory_defaultHeapInstance__C
  0000054c    0000054c    00000004   00000004    r-- .const:xdc_runtime_Startup_execImpl__C
  00000550    00000550    00000004   00000004    r-- .const:xdc_runtime_Startup_maxPasses__C
  00000554    00000554    00000004   00000004    r-- .const:xdc_runtime_Startup_sfxnRts__C
  00000558    00000558    00000004   00000004    r-- .const:xdc_runtime_Startup_sfxnTab__C
  0000055c    0000055c    00000004   00000004    r-- .const:xdc_runtime_Startup_startModsFxn__C
  00000560    00000560    00000004   00000004    r-- .const:xdc_runtime_SysCallback_abortFxn__C
  00000564    00000564    00000004   00000004    r-- .const:xdc_runtime_SysCallback_exitFxn__C
  00000568    00000568    00000004   00000004    r-- .const:xdc_runtime_System_abortFxn__C
  0000056c    0000056c    00000004   00000004    r-- .const:xdc_runtime_System_exitFxn__C
  00000570    00000570    00000004   00000004    r-- .const:xdc_runtime_System_maxAtexitHandlers__C
  00000574    00000574    00000004   00000004    r-- .const:xdc_runtime_Text_charTab__C
  00000578    00000578    00000004   00000004    r-- .const:xdc_runtime_Text_nameEmpty__C
  0000057c    0000057c    00000004   00000004    r-- .const:xdc_runtime_Text_nameStatic__C
  00000580    00000580    00000004   00000004    r-- .const:xdc_runtime_Text_nameUnknown__C
  00000584    00000584    00000002   00000002    r-- .const:xdc_runtime_Main_Module__id__C
  00000586    00000586    00000002   00000002    r-- .const:xdc_runtime_Memory_Module__id__C
  00000588    00000588    00000002   00000002    r-- .const:xdc_runtime_Text_charCnt__C
  0000058a    0000058a    00000002   00000002    r-- .const:xdc_runtime_Text_isLoaded__C
  0000058c    0000058c    00000001   00000001    r-- .const:xdc_runtime_Error_policy__C
  00000590    00000590    00000004   00000004    r-- .const:ti_sysbios_rom_ROM_AONRTCChannelEnable
  00000594    00000594    00000004   00000004    r-- .const:ti_sysbios_rom_ROM_AONRTCCompareValueSet
  00000598    00000598    00000004   00000004    r-- .const:ti_sysbios_rom_ROM_AONRTCCurrentCompareValueGet
  0000059c    0000059c    00000004   00000004    r-- .const:ti_sysbios_rom_ROM_AONRTCEventClear
  000005a0    000005a0    00000004   00000004    r-- .const:ti_sysbios_rom_ROM_ti_sysbios_family_arm_cc26xx_Timer_getCount64__E
  000005a4    000005a4    00000004   00000004    r-- .const:ti_sysbios_rom_ROM_ti_sysbios_family_arm_cc26xx_Timer_getCurrentTick__E
  000005a8    000005a8    00000004   00000004    r-- .const:ti_sysbios_rom_ROM_ti_sysbios_family_arm_cc26xx_Timer_getMaxTicks__E
  000005ac    000005ac    00000004   00000004    r-- .const:ti_sysbios_rom_ROM_ti_sysbios_family_arm_cc26xx_Timer_initDevice__I
  000005b0    000005b0    00000004   00000004    r-- .const:ti_sysbios_rom_ROM_ti_sysbios_family_arm_cc26xx_Timer_setNextTick__E
  000005b4    000005b4    00000004   00000004    r-- .const:ti_sysbios_rom_ROM_ti_sysbios_family_arm_cc26xx_Timer_setThreshold__I
  000005b8    000005b8    00000004   00000004    r-- .const:ti_sysbios_rom_ROM_ti_sysbios_family_arm_cc26xx_Timer_start__E
  000005bc    000005bc    00000004   00000004    r-- .const:ti_sysbios_rom_ROM_ti_sysbios_family_arm_cc26xx_TimestampProvider_get32__E
  000005c0    000005c0    00000004   00000004    r-- .const:ti_sysbios_rom_ROM_xdc_runtime_Startup_getState__I
  000005c4    000005c4    00000004   00000004    r-- .const:ti_sysbios_rom_ROM_xdc_runtime_System_SupportProxy_abort__E
  000005c8    000005c8    00000004   00000004    r-- .const:ti_sysbios_rom_ROM_xdc_runtime_System_SupportProxy_exit__E
  000005cc    000005cc    00000004   00000004    r-- .const:ti_sysbios_gates_GateMutex_Instance_State_sem__O
  000005d0    000005d0    00000004   00000004    r-- .const:ti_sysbios_knl_Clock_Module_State_clockQ__O
  000005d4    000005d4    00000004   00000004    r-- .const:ti_sysbios_knl_Mailbox_Instance_State_dataQue__O
  000005d8    000005d8    00000004   00000004    r-- .const:ti_sysbios_knl_Mailbox_Instance_State_dataSem__O
  000005dc    000005dc    00000004   00000004    r-- .const:ti_sysbios_knl_Mailbox_Instance_State_freeQue__O
  000005e0    000005e0    00000004   00000004    r-- .const:ti_sysbios_knl_Mailbox_Instance_State_freeSem__O
  000005e4    000005e4    00000004   00000004    r-- .const:ti_sysbios_knl_Semaphore_Instance_State_pendQ__O
  000005e8    000005e8    00000004   00000004    r-- .const:ti_sysbios_knl_Task_Module_State_inactiveQ__O
  000005ec    000005ec    000081d8   000081d8    r-x .text.4
  000087c4    000087c4    00000448   00000448    r-- .const
  00008c10    00008c10    000004c0   000004c0    r-- .cinit
0001ffa8    0001ffa8    00000058   00000058    r--
  0001ffa8    0001ffa8    00000058   00000058    r-- .ccfg
20000100    20000100    00001f07   00000000    rw-
  20000100    20000100    00000044   00000000    rw- .data:ti_sysbios_knl_Task_Module__state__V
  20000144    20000144    00000034   00000000    rw- .data:ti_sysbios_family_arm_m3_Hwi_Module__state__V
  20000178    20000178    0000002c   00000000    rw- .data:ti_sysbios_knl_Clock_Module__state__V
  200001a4    200001a4    00000024   00000000    rw- .data:ti_sysbios_BIOS_Module__state__V
  200001c8    200001c8    0000001c   00000000    rw- .data:ti_sysbios_knl_Swi_Module__state__V
  200001e4    200001e4    00000008   00000000    rw- .data:ti_sysbios_family_arm_cc26xx_Timer_Module__state__V
  200001ec    200001ec    00000004   00000000    rw- .data:ti_sysbios_family_arm_cc26xx_TimestampProvider_Module__state__V
  200001f0    200001f0    00000008   00000000    rw- .data:xdc_runtime_Startup_Module__state__V
  200001f8    200001f8    00000008   00000000    rw- .data:xdc_runtime_System_Module__state__V
  20000200    20000200    00000004   00000000    rw- .data:xdc_runtime_Memory_Module__state__V
  20000208    20000208    0000119c   00000000    rw- .data
  200013a8    200013a8    00000c5f   00000000    rw- .bss
20003f20    20003f20    00000400   00000000    rw-
  20003f20    20003f20    00000400   00000000    rw- .stack


SECTION ALLOCATION MAP

 output                                  attributes/
section   page    origin      length       input sections
--------  ----  ----------  ----------   ----------------
.resetVecs 
*          0    00000000    0000003c     
                  00000000    0000003c     app_ble_pem3.oem3 (.resetVecs)

.text.1    0    0000003c    000000c4     
                  0000003c    000000c0     simple_gatt_profile.obj (.text:SimpleProfile_SetParameter)
                  000000fc    00000004     icall.obj (.text:ICall_primAbort$15)

.const:ti_sysbios_knl_Task_Object__PARAMS__C 
*          0    00000100    0000003c     
                  00000100    0000003c     app_ble_pem3.oem3 (.const:ti_sysbios_knl_Task_Object__PARAMS__C)

.const:ti_sysbios_knl_Mailbox_Object__PARAMS__C 
*          0    0000013c    00000034     
                  0000013c    00000034     app_ble_pem3.oem3 (.const:ti_sysbios_knl_Mailbox_Object__PARAMS__C)

.const:ti_sysbios_family_arm_m3_Hwi_Object__PARAMS__C 
*          0    00000170    00000030     
                  00000170    00000030     app_ble_pem3.oem3 (.const:ti_sysbios_family_arm_m3_Hwi_Object__PARAMS__C)

.const:ti_sysbios_hal_Hwi_Object__PARAMS__C 
*          0    000001a0    0000002c     
                  000001a0    0000002c     app_ble_pem3.oem3 (.const:ti_sysbios_hal_Hwi_Object__PARAMS__C)

.const:ti_sysbios_heaps_HeapMem_Module__FXNS__C 
*          0    000001cc    00000028     
                  000001cc    00000028     app_ble_pem3.oem3 (.const:ti_sysbios_heaps_HeapMem_Module__FXNS__C)

.const:ti_sysbios_knl_Swi_Object__PARAMS__C 
*          0    000001f4    00000028     
                  000001f4    00000028     app_ble_pem3.oem3 (.const:ti_sysbios_knl_Swi_Object__PARAMS__C)

.const:ti_sysbios_gates_GateHwi_Module__FXNS__C 
*          0    0000021c    00000024     
                  0000021c    00000024     app_ble_pem3.oem3 (.const:ti_sysbios_gates_GateHwi_Module__FXNS__C)

.const:ti_sysbios_gates_GateMutex_Module__FXNS__C 
*          0    00000240    00000024     
                  00000240    00000024     app_ble_pem3.oem3 (.const:ti_sysbios_gates_GateMutex_Module__FXNS__C)

.const:ti_sysbios_heaps_HeapMem_Object__PARAMS__C 
*          0    00000264    00000024     
                  00000264    00000024     app_ble_pem3.oem3 (.const:ti_sysbios_heaps_HeapMem_Object__PARAMS__C)

.const:ti_sysbios_knl_Clock_Object__PARAMS__C 
*          0    00000288    00000024     
                  00000288    00000024     app_ble_pem3.oem3 (.const:ti_sysbios_knl_Clock_Object__PARAMS__C)

.const:ti_sysbios_knl_Semaphore_Object__PARAMS__C 
*          0    000002ac    00000024     
                  000002ac    00000024     app_ble_pem3.oem3 (.const:ti_sysbios_knl_Semaphore_Object__PARAMS__C)

.const:ti_sysbios_family_arm_m3_Hwi_Object__DESC__C 
*          0    000002d0    00000020     
                  000002d0    00000020     app_ble_pem3.oem3 (.const:ti_sysbios_family_arm_m3_Hwi_Object__DESC__C)

.const:ti_sysbios_gates_GateHwi_Object__DESC__C 
*          0    000002f0    00000020     
                  000002f0    00000020     app_ble_pem3.oem3 (.const:ti_sysbios_gates_GateHwi_Object__DESC__C)

.const:ti_sysbios_gates_GateMutex_Object__DESC__C 
*          0    00000310    00000020     
                  00000310    00000020     app_ble_pem3.oem3 (.const:ti_sysbios_gates_GateMutex_Object__DESC__C)

.const:ti_sysbios_hal_Hwi_Object__DESC__C 
*          0    00000330    00000020     
                  00000330    00000020     app_ble_pem3.oem3 (.const:ti_sysbios_hal_Hwi_Object__DESC__C)

.const:ti_sysbios_heaps_HeapMem_Object__DESC__C 
*          0    00000350    00000020     
                  00000350    00000020     app_ble_pem3.oem3 (.const:ti_sysbios_heaps_HeapMem_Object__DESC__C)

.const:ti_sysbios_knl_Clock_Object__DESC__C 
*          0    00000370    00000020     
                  00000370    00000020     app_ble_pem3.oem3 (.const:ti_sysbios_knl_Clock_Object__DESC__C)

.const:ti_sysbios_knl_Mailbox_Object__DESC__C 
*          0    00000390    00000020     
                  00000390    00000020     app_ble_pem3.oem3 (.const:ti_sysbios_knl_Mailbox_Object__DESC__C)

.const:ti_sysbios_knl_Queue_Object__DESC__C 
*          0    000003b0    00000020     
                  000003b0    00000020     app_ble_pem3.oem3 (.const:ti_sysbios_knl_Queue_Object__DESC__C)

.const:ti_sysbios_knl_Semaphore_Object__DESC__C 
*          0    000003d0    00000020     
                  000003d0    00000020     app_ble_pem3.oem3 (.const:ti_sysbios_knl_Semaphore_Object__DESC__C)

.const:ti_sysbios_knl_Swi_Object__DESC__C 
*          0    000003f0    00000020     
                  000003f0    00000020     app_ble_pem3.oem3 (.const:ti_sysbios_knl_Swi_Object__DESC__C)

.const:ti_sysbios_knl_Task_Object__DESC__C 
*          0    00000410    00000020     
                  00000410    00000020     app_ble_pem3.oem3 (.const:ti_sysbios_knl_Task_Object__DESC__C)

.const:ti_sysbios_gates_GateHwi_Object__PARAMS__C 
*          0    00000430    00000018     
                  00000430    00000018     app_ble_pem3.oem3 (.const:ti_sysbios_gates_GateHwi_Object__PARAMS__C)

.const:ti_sysbios_gates_GateMutex_Object__PARAMS__C 
*          0    00000448    00000018     
                  00000448    00000018     app_ble_pem3.oem3 (.const:ti_sysbios_gates_GateMutex_Object__PARAMS__C)

.const:ti_sysbios_knl_Queue_Object__PARAMS__C 
*          0    00000460    00000018     
                  00000460    00000018     app_ble_pem3.oem3 (.const:ti_sysbios_knl_Queue_Object__PARAMS__C)

.const:ti_sysbios_knl_Idle_funcList__C 
*          0    00000478    00000008     
                  00000478    00000008     app_ble_pem3.oem3 (.const:ti_sysbios_knl_Idle_funcList__C)

.text.2    0    00000480    00000004     
                  00000480    00000004     drivers_cc26xxware.aem3 : List.oem3 (.text:List_head)

.const:ti_sysbios_family_arm_cc26xx_Timer_startupNeeded__C 
*          0    00000484    00000004     
                  00000484    00000004     app_ble_pem3.oem3 (.const:ti_sysbios_family_arm_cc26xx_Timer_startupNeeded__C)

.const:ti_sysbios_family_arm_m3_Hwi_E_alreadyDefined__C 
*          0    00000488    00000004     
                  00000488    00000004     app_ble_pem3.oem3 (.const:ti_sysbios_family_arm_m3_Hwi_E_alreadyDefined__C)

.const:ti_sysbios_family_arm_m3_Hwi_E_hwiLimitExceeded__C 
*          0    0000048c    00000004     
                  0000048c    00000004     app_ble_pem3.oem3 (.const:ti_sysbios_family_arm_m3_Hwi_E_hwiLimitExceeded__C)

.const:ti_sysbios_family_arm_m3_Hwi_NUM_INTERRUPTS__C 
*          0    00000490    00000004     
                  00000490    00000004     app_ble_pem3.oem3 (.const:ti_sysbios_family_arm_m3_Hwi_NUM_INTERRUPTS__C)

.const:ti_sysbios_family_arm_m3_Hwi_Object__count__C 
*          0    00000494    00000004     
                  00000494    00000004     app_ble_pem3.oem3 (.const:ti_sysbios_family_arm_m3_Hwi_Object__count__C)

.const:ti_sysbios_family_arm_m3_Hwi_Object__table__C 
*          0    00000498    00000004     
                  00000498    00000004     app_ble_pem3.oem3 (.const:ti_sysbios_family_arm_m3_Hwi_Object__table__C)

.const:ti_sysbios_family_arm_m3_Hwi_ccr__C 
*          0    0000049c    00000004     
                  0000049c    00000004     app_ble_pem3.oem3 (.const:ti_sysbios_family_arm_m3_Hwi_ccr__C)

.const:ti_sysbios_family_arm_m3_Hwi_excHandlerFunc__C 
*          0    000004a0    00000004     
                  000004a0    00000004     app_ble_pem3.oem3 (.const:ti_sysbios_family_arm_m3_Hwi_excHandlerFunc__C)

.const:ti_sysbios_family_arm_m3_Hwi_nullIsrFunc__C 
*          0    000004a4    00000004     
                  000004a4    00000004     app_ble_pem3.oem3 (.const:ti_sysbios_family_arm_m3_Hwi_nullIsrFunc__C)

.const:ti_sysbios_family_arm_m3_Hwi_numSparseInterrupts__C 
*          0    000004a8    00000004     
                  000004a8    00000004     app_ble_pem3.oem3 (.const:ti_sysbios_family_arm_m3_Hwi_numSparseInterrupts__C)

.const:ti_sysbios_family_arm_m3_Hwi_priGroup__C 
*          0    000004ac    00000004     
                  000004ac    00000004     app_ble_pem3.oem3 (.const:ti_sysbios_family_arm_m3_Hwi_priGroup__C)

.const:ti_sysbios_family_arm_m3_TaskSupport_stackAlignment__C 
*          0    000004b0    00000004     
                  000004b0    00000004     app_ble_pem3.oem3 (.const:ti_sysbios_family_arm_m3_TaskSupport_stackAlignment__C)

.const:ti_sysbios_heaps_HeapMem_E_memory__C 
*          0    000004b4    00000004     
                  000004b4    00000004     app_ble_pem3.oem3 (.const:ti_sysbios_heaps_HeapMem_E_memory__C)

.const:ti_sysbios_heaps_HeapMem_Module__gateObj__C 
*          0    000004b8    00000004     
                  000004b8    00000004     app_ble_pem3.oem3 (.const:ti_sysbios_heaps_HeapMem_Module__gateObj__C)

.const:ti_sysbios_heaps_HeapMem_Object__count__C 
*          0    000004bc    00000004     
                  000004bc    00000004     app_ble_pem3.oem3 (.const:ti_sysbios_heaps_HeapMem_Object__count__C)

.const:ti_sysbios_heaps_HeapMem_Object__table__C 
*          0    000004c0    00000004     
                  000004c0    00000004     app_ble_pem3.oem3 (.const:ti_sysbios_heaps_HeapMem_Object__table__C)

.const:ti_sysbios_heaps_HeapMem_reqAlign__C 
*          0    000004c4    00000004     
                  000004c4    00000004     app_ble_pem3.oem3 (.const:ti_sysbios_heaps_HeapMem_reqAlign__C)

.const:ti_sysbios_knl_Clock_serviceMargin__C 
*          0    000004c8    00000004     
                  000004c8    00000004     app_ble_pem3.oem3 (.const:ti_sysbios_knl_Clock_serviceMargin__C)

.const:ti_sysbios_knl_Mailbox_Object__count__C 
*          0    000004cc    00000004     
                  000004cc    00000004     app_ble_pem3.oem3 (.const:ti_sysbios_knl_Mailbox_Object__count__C)

.const:ti_sysbios_knl_Mailbox_Object__table__C 
*          0    000004d0    00000004     
                  000004d0    00000004     app_ble_pem3.oem3 (.const:ti_sysbios_knl_Mailbox_Object__table__C)

.const:ti_sysbios_knl_Queue_Object__count__C 
*          0    000004d4    00000004     
                  000004d4    00000004     app_ble_pem3.oem3 (.const:ti_sysbios_knl_Queue_Object__count__C)

.const:ti_sysbios_knl_Queue_Object__table__C 
*          0    000004d8    00000004     
                  000004d8    00000004     app_ble_pem3.oem3 (.const:ti_sysbios_knl_Queue_Object__table__C)

.const:ti_sysbios_knl_Swi_Object__count__C 
*          0    000004dc    00000004     
                  000004dc    00000004     app_ble_pem3.oem3 (.const:ti_sysbios_knl_Swi_Object__count__C)

.const:ti_sysbios_knl_Swi_Object__table__C 
*          0    000004e0    00000004     
                  000004e0    00000004     app_ble_pem3.oem3 (.const:ti_sysbios_knl_Swi_Object__table__C)

.const:ti_sysbios_knl_Swi_numPriorities__C 
*          0    000004e4    00000004     
                  000004e4    00000004     app_ble_pem3.oem3 (.const:ti_sysbios_knl_Swi_numPriorities__C)

.const:ti_sysbios_knl_Task_Object__count__C 
*          0    000004e8    00000004     
                  000004e8    00000004     app_ble_pem3.oem3 (.const:ti_sysbios_knl_Task_Object__count__C)

.const:ti_sysbios_knl_Task_Object__table__C 
*          0    000004ec    00000004     
                  000004ec    00000004     app_ble_pem3.oem3 (.const:ti_sysbios_knl_Task_Object__table__C)

.const:ti_sysbios_knl_Task_allBlockedFunc__C 
*          0    000004f0    00000004     
                  000004f0    00000004     app_ble_pem3.oem3 (.const:ti_sysbios_knl_Task_allBlockedFunc__C)

.const:ti_sysbios_knl_Task_defaultStackHeap__C 
*          0    000004f4    00000004     
                  000004f4    00000004     app_ble_pem3.oem3 (.const:ti_sysbios_knl_Task_defaultStackHeap__C)

.const:ti_sysbios_knl_Task_defaultStackSize__C 
*          0    000004f8    00000004     
                  000004f8    00000004     app_ble_pem3.oem3 (.const:ti_sysbios_knl_Task_defaultStackSize__C)

.const:ti_sysbios_knl_Task_numConstructedTasks__C 
*          0    000004fc    00000004     
                  000004fc    00000004     app_ble_pem3.oem3 (.const:ti_sysbios_knl_Task_numConstructedTasks__C)

.text.3    0    00000500    00000002     
                  00000500    00000002     ble_user_config.obj (.text:DefaultAssertCback)

.const:ti_sysbios_family_arm_cc26xx_Timer_Module__id__C 
*          0    00000502    00000002     
                  00000502    00000002     app_ble_pem3.oem3 (.const:ti_sysbios_family_arm_cc26xx_Timer_Module__id__C)

.const:ti_sysbios_family_arm_cc26xx_TimestampProvider_useClockTimer__C 
*          0    00000504    00000002     
                  00000504    00000002     app_ble_pem3.oem3 (.const:ti_sysbios_family_arm_cc26xx_TimestampProvider_useClockTimer__C)

.const:ti_sysbios_family_arm_m3_Hwi_Module__id__C 
*          0    00000506    00000002     
                  00000506    00000002     app_ble_pem3.oem3 (.const:ti_sysbios_family_arm_m3_Hwi_Module__id__C)

.const:ti_sysbios_gates_GateHwi_Module__id__C 
*          0    00000508    00000002     
                  00000508    00000002     app_ble_pem3.oem3 (.const:ti_sysbios_gates_GateHwi_Module__id__C)

.const:ti_sysbios_gates_GateMutex_Module__id__C 
*          0    0000050a    00000002     
                  0000050a    00000002     app_ble_pem3.oem3 (.const:ti_sysbios_gates_GateMutex_Module__id__C)

.const:ti_sysbios_heaps_HeapMem_Module__id__C 
*          0    0000050c    00000002     
                  0000050c    00000002     app_ble_pem3.oem3 (.const:ti_sysbios_heaps_HeapMem_Module__id__C)

.const:ti_sysbios_knl_Task_initStackFlag__C 
*          0    0000050e    00000002     
                  0000050e    00000002     app_ble_pem3.oem3 (.const:ti_sysbios_knl_Task_initStackFlag__C)

.const:ti_sysbios_knl_Clock_tickMode__C 
*          0    00000510    00000001     
                  00000510    00000001     app_ble_pem3.oem3 (.const:ti_sysbios_knl_Clock_tickMode__C)

.const:xdc_runtime_Startup_firstFxns__C 
*          0    00000514    00000008     
                  00000514    00000008     app_ble_pem3.oem3 (.const:xdc_runtime_Startup_firstFxns__C)

.const:xdc_runtime_Startup_lastFxns__C 
*          0    0000051c    00000008     
                  0000051c    00000008     app_ble_pem3.oem3 (.const:xdc_runtime_Startup_lastFxns__C)

.const:xdc_runtime_Assert_E_assertFailed__C 
*          0    00000524    00000004     
                  00000524    00000004     app_ble_pem3.oem3 (.const:xdc_runtime_Assert_E_assertFailed__C)

.const:xdc_runtime_Error_E_memory__C 
*          0    00000528    00000004     
                  00000528    00000004     app_ble_pem3.oem3 (.const:xdc_runtime_Error_E_memory__C)

.const:xdc_runtime_Error_policyFxn__C 
*          0    0000052c    00000004     
                  0000052c    00000004     app_ble_pem3.oem3 (.const:xdc_runtime_Error_policyFxn__C)

.const:xdc_runtime_IGateProvider_Interface__BASE__C 
*          0    00000530    00000004     
                  00000530    00000004     app_ble_pem3.oem3 (.const:xdc_runtime_IGateProvider_Interface__BASE__C)

.const:xdc_runtime_IHeap_Interface__BASE__C 
*          0    00000534    00000004     
                  00000534    00000004     app_ble_pem3.oem3 (.const:xdc_runtime_IHeap_Interface__BASE__C)

.const:xdc_runtime_IModule_Interface__BASE__C 
*          0    00000538    00000004     
                  00000538    00000004     app_ble_pem3.oem3 (.const:xdc_runtime_IModule_Interface__BASE__C)

.const:xdc_runtime_Main_Module__diagsEnabled__C 
*          0    0000053c    00000004     
                  0000053c    00000004     app_ble_pem3.oem3 (.const:xdc_runtime_Main_Module__diagsEnabled__C)

.const:xdc_runtime_Main_Module__diagsIncluded__C 
*          0    00000540    00000004     
                  00000540    00000004     app_ble_pem3.oem3 (.const:xdc_runtime_Main_Module__diagsIncluded__C)

.const:xdc_runtime_Main_Module__diagsMask__C 
*          0    00000544    00000004     
                  00000544    00000004     app_ble_pem3.oem3 (.const:xdc_runtime_Main_Module__diagsMask__C)

.const:xdc_runtime_Memory_defaultHeapInstance__C 
*          0    00000548    00000004     
                  00000548    00000004     app_ble_pem3.oem3 (.const:xdc_runtime_Memory_defaultHeapInstance__C)

.const:xdc_runtime_Startup_execImpl__C 
*          0    0000054c    00000004     
                  0000054c    00000004     app_ble_pem3.oem3 (.const:xdc_runtime_Startup_execImpl__C)

.const:xdc_runtime_Startup_maxPasses__C 
*          0    00000550    00000004     
                  00000550    00000004     app_ble_pem3.oem3 (.const:xdc_runtime_Startup_maxPasses__C)

.const:xdc_runtime_Startup_sfxnRts__C 
*          0    00000554    00000004     
                  00000554    00000004     app_ble_pem3.oem3 (.const:xdc_runtime_Startup_sfxnRts__C)

.const:xdc_runtime_Startup_sfxnTab__C 
*          0    00000558    00000004     
                  00000558    00000004     app_ble_pem3.oem3 (.const:xdc_runtime_Startup_sfxnTab__C)

.const:xdc_runtime_Startup_startModsFxn__C 
*          0    0000055c    00000004     
                  0000055c    00000004     app_ble_pem3.oem3 (.const:xdc_runtime_Startup_startModsFxn__C)

.const:xdc_runtime_SysCallback_abortFxn__C 
*          0    00000560    00000004     
                  00000560    00000004     app_ble_pem3.oem3 (.const:xdc_runtime_SysCallback_abortFxn__C)

.const:xdc_runtime_SysCallback_exitFxn__C 
*          0    00000564    00000004     
                  00000564    00000004     app_ble_pem3.oem3 (.const:xdc_runtime_SysCallback_exitFxn__C)

.const:xdc_runtime_System_abortFxn__C 
*          0    00000568    00000004     
                  00000568    00000004     app_ble_pem3.oem3 (.const:xdc_runtime_System_abortFxn__C)

.const:xdc_runtime_System_exitFxn__C 
*          0    0000056c    00000004     
                  0000056c    00000004     app_ble_pem3.oem3 (.const:xdc_runtime_System_exitFxn__C)

.const:xdc_runtime_System_maxAtexitHandlers__C 
*          0    00000570    00000004     
                  00000570    00000004     app_ble_pem3.oem3 (.const:xdc_runtime_System_maxAtexitHandlers__C)

.const:xdc_runtime_Text_charTab__C 
*          0    00000574    00000004     
                  00000574    00000004     app_ble_pem3.oem3 (.const:xdc_runtime_Text_charTab__C)

.const:xdc_runtime_Text_nameEmpty__C 
*          0    00000578    00000004     
                  00000578    00000004     app_ble_pem3.oem3 (.const:xdc_runtime_Text_nameEmpty__C)

.const:xdc_runtime_Text_nameStatic__C 
*          0    0000057c    00000004     
                  0000057c    00000004     app_ble_pem3.oem3 (.const:xdc_runtime_Text_nameStatic__C)

.const:xdc_runtime_Text_nameUnknown__C 
*          0    00000580    00000004     
                  00000580    00000004     app_ble_pem3.oem3 (.const:xdc_runtime_Text_nameUnknown__C)

.const:xdc_runtime_Main_Module__id__C 
*          0    00000584    00000002     
                  00000584    00000002     app_ble_pem3.oem3 (.const:xdc_runtime_Main_Module__id__C)

.const:xdc_runtime_Memory_Module__id__C 
*          0    00000586    00000002     
                  00000586    00000002     app_ble_pem3.oem3 (.const:xdc_runtime_Memory_Module__id__C)

.const:xdc_runtime_Text_charCnt__C 
*          0    00000588    00000002     
                  00000588    00000002     app_ble_pem3.oem3 (.const:xdc_runtime_Text_charCnt__C)

.const:xdc_runtime_Text_isLoaded__C 
*          0    0000058a    00000002     
                  0000058a    00000002     app_ble_pem3.oem3 (.const:xdc_runtime_Text_isLoaded__C)

.const:xdc_runtime_Error_policy__C 
*          0    0000058c    00000001     
                  0000058c    00000001     app_ble_pem3.oem3 (.const:xdc_runtime_Error_policy__C)

.const:ti_sysbios_rom_ROM_AONRTCChannelEnable 
*          0    00000590    00000004     
                  00000590    00000004     app_ble_pem3.oem3 (.const:ti_sysbios_rom_ROM_AONRTCChannelEnable)

.const:ti_sysbios_rom_ROM_AONRTCCompareValueSet 
*          0    00000594    00000004     
                  00000594    00000004     app_ble_pem3.oem3 (.const:ti_sysbios_rom_ROM_AONRTCCompareValueSet)

.const:ti_sysbios_rom_ROM_AONRTCCurrentCompareValueGet 
*          0    00000598    00000004     
                  00000598    00000004     app_ble_pem3.oem3 (.const:ti_sysbios_rom_ROM_AONRTCCurrentCompareValueGet)

.const:ti_sysbios_rom_ROM_AONRTCEventClear 
*          0    0000059c    00000004     
                  0000059c    00000004     app_ble_pem3.oem3 (.const:ti_sysbios_rom_ROM_AONRTCEventClear)

.const:ti_sysbios_rom_ROM_ti_sysbios_family_arm_cc26xx_Timer_getCount64__E 
*          0    000005a0    00000004     
                  000005a0    00000004     app_ble_pem3.oem3 (.const:ti_sysbios_rom_ROM_ti_sysbios_family_arm_cc26xx_Timer_getCount64__E)

.const:ti_sysbios_rom_ROM_ti_sysbios_family_arm_cc26xx_Timer_getCurrentTick__E 
*          0    000005a4    00000004     
                  000005a4    00000004     app_ble_pem3.oem3 (.const:ti_sysbios_rom_ROM_ti_sysbios_family_arm_cc26xx_Timer_getCurrentTick__E)

.const:ti_sysbios_rom_ROM_ti_sysbios_family_arm_cc26xx_Timer_getMaxTicks__E 
*          0    000005a8    00000004     
                  000005a8    00000004     app_ble_pem3.oem3 (.const:ti_sysbios_rom_ROM_ti_sysbios_family_arm_cc26xx_Timer_getMaxTicks__E)

.const:ti_sysbios_rom_ROM_ti_sysbios_family_arm_cc26xx_Timer_initDevice__I 
*          0    000005ac    00000004     
                  000005ac    00000004     app_ble_pem3.oem3 (.const:ti_sysbios_rom_ROM_ti_sysbios_family_arm_cc26xx_Timer_initDevice__I)

.const:ti_sysbios_rom_ROM_ti_sysbios_family_arm_cc26xx_Timer_setNextTick__E 
*          0    000005b0    00000004     
                  000005b0    00000004     app_ble_pem3.oem3 (.const:ti_sysbios_rom_ROM_ti_sysbios_family_arm_cc26xx_Timer_setNextTick__E)

.const:ti_sysbios_rom_ROM_ti_sysbios_family_arm_cc26xx_Timer_setThreshold__I 
*          0    000005b4    00000004     
                  000005b4    00000004     app_ble_pem3.oem3 (.const:ti_sysbios_rom_ROM_ti_sysbios_family_arm_cc26xx_Timer_setThreshold__I)

.const:ti_sysbios_rom_ROM_ti_sysbios_family_arm_cc26xx_Timer_start__E 
*          0    000005b8    00000004     
                  000005b8    00000004     app_ble_pem3.oem3 (.const:ti_sysbios_rom_ROM_ti_sysbios_family_arm_cc26xx_Timer_start__E)

.const:ti_sysbios_rom_ROM_ti_sysbios_family_arm_cc26xx_TimestampProvider_get32__E 
*          0    000005bc    00000004     
                  000005bc    00000004     app_ble_pem3.oem3 (.const:ti_sysbios_rom_ROM_ti_sysbios_family_arm_cc26xx_TimestampProvider_get32__E)

.const:ti_sysbios_rom_ROM_xdc_runtime_Startup_getState__I 
*          0    000005c0    00000004     
                  000005c0    00000004     app_ble_pem3.oem3 (.const:ti_sysbios_rom_ROM_xdc_runtime_Startup_getState__I)

.const:ti_sysbios_rom_ROM_xdc_runtime_System_SupportProxy_abort__E 
*          0    000005c4    00000004     
                  000005c4    00000004     app_ble_pem3.oem3 (.const:ti_sysbios_rom_ROM_xdc_runtime_System_SupportProxy_abort__E)

.const:ti_sysbios_rom_ROM_xdc_runtime_System_SupportProxy_exit__E 
*          0    000005c8    00000004     
                  000005c8    00000004     app_ble_pem3.oem3 (.const:ti_sysbios_rom_ROM_xdc_runtime_System_SupportProxy_exit__E)

.const:ti_sysbios_gates_GateMutex_Instance_State_sem__O 
*          0    000005cc    00000004     
                  000005cc    00000004     app_ble_pem3.oem3 (.const:ti_sysbios_gates_GateMutex_Instance_State_sem__O)

.const:ti_sysbios_knl_Clock_Module_State_clockQ__O 
*          0    000005d0    00000004     
                  000005d0    00000004     app_ble_pem3.oem3 (.const:ti_sysbios_knl_Clock_Module_State_clockQ__O)

.const:ti_sysbios_knl_Mailbox_Instance_State_dataQue__O 
*          0    000005d4    00000004     
                  000005d4    00000004     app_ble_pem3.oem3 (.const:ti_sysbios_knl_Mailbox_Instance_State_dataQue__O)

.const:ti_sysbios_knl_Mailbox_Instance_State_dataSem__O 
*          0    000005d8    00000004     
                  000005d8    00000004     app_ble_pem3.oem3 (.const:ti_sysbios_knl_Mailbox_Instance_State_dataSem__O)

.const:ti_sysbios_knl_Mailbox_Instance_State_freeQue__O 
*          0    000005dc    00000004     
                  000005dc    00000004     app_ble_pem3.oem3 (.const:ti_sysbios_knl_Mailbox_Instance_State_freeQue__O)

.const:ti_sysbios_knl_Mailbox_Instance_State_freeSem__O 
*          0    000005e0    00000004     
                  000005e0    00000004     app_ble_pem3.oem3 (.const:ti_sysbios_knl_Mailbox_Instance_State_freeSem__O)

.const:ti_sysbios_knl_Semaphore_Instance_State_pendQ__O 
*          0    000005e4    00000004     
                  000005e4    00000004     app_ble_pem3.oem3 (.const:ti_sysbios_knl_Semaphore_Instance_State_pendQ__O)

.const:ti_sysbios_knl_Task_Module_State_inactiveQ__O 
*          0    000005e8    00000004     
                  000005e8    00000004     app_ble_pem3.oem3 (.const:ti_sysbios_knl_Task_Module_State_inactiveQ__O)

.text.4    0    000005ec    000081d8     
                  000005ec    0000068c     simple_peripheral.obj (.text:SimpleBLEPeripheral_taskFxn$28)
                  00000c78    000005cc     peripheral.obj (.text:gapRole_taskFxn$23)
                  00001244    00000450     driverlib.lib : setup.obj (.text:TrimAfterColdResetWakeupFromShutDown$49)
                  00001694    0000033c     rom_sysbios.aem3 : rom_sysbios.obj (.text:xdc_runtime_System_doPrint__I)
                  000019d0    00000280     RFCC26XX_singleMode.obj (.text:fsmActiveState$8)
                  00001c50    00000248     peripheral.obj (.text:GAPRole_SetParameter)
                  00001e98    0000022c     simple_peripheral.obj (.text:SimpleBLEPeripheral_processStateChangeEvt$28)
                  000020c4    00000228     drivers_cc26xxware.aem3 : PowerCC26XX.oem3 (.text:Power_sleep)
                  000022ec    00000208     driverlib.lib : sys_ctrl.obj (.text:NOROM_SysCtrlSetRechargeBeforePowerDown)
                  000024f4    000001f4     rtsv7M3_T_le_eabi.lib : ull_div_t2.obj (.text)
                  000026e8    000001d0     drivers_cc26xxware.aem3 : PowerCC26XX_calibrateRCOSC.oem3 (.text:calibrateRcoscHf1)
                  000028b8    000001c8     PINCC26XX.obj (.text:PIN_init)
                  00002a80    000001c0     RFCC26XX_singleMode.obj (.text:fsmSetupState$8)
                  00002c40    000001a8     RFCC26XX_singleMode.obj (.text:RF_postCmd)
                  00002de8    00000198     UARTCC26XX.obj (.text:UARTCC26XX_open)
                  00002f80    00000184     drivers_cc26xxware.aem3 : PowerCC26XX_calibrateRCOSC.oem3 (.text:PowerCC26XX_doCalibrate)
                  00003104    0000017c     RFCC26XX_singleMode.obj (.text:abortCmd$8)
                  00003280    00000148     driverlib.lib : setup.obj (.text:NOROM_SetupTrimDevice)
                  000033c8    0000012c     main.obj (.text:AssertHandler)
                  000034f4    00000120     peripheral.obj (.text:GAPRole_GetParameter)
                  00003614    0000011c     drivers_cc26xxware.aem3 : PowerCC26XX.oem3 (.text:Power_init)
                  00003730    00000118     UARTCC26XX.obj (.text:UARTCC26XX_read)
                  00003848    0000010c     RFCC26XX_singleMode.obj (.text:hwiFxnCpe0Active$8)
                  00003954    0000010a     UARTCC26XX.obj (.text:UARTCC26XX_hwiIntFxn)
                  00003a5e    00000106     icall.obj (.text:ICall_primWaitMatch$15)
                  00003b64    000000fc     UARTCC26XX.obj (.text:UARTCC26XX_write)
                  00003c60    000000f8     RFCC26XX_singleMode.obj (.text:fsmPowerUpState$8)
                  00003d58    000000f8     RFCC26XX_singleMode.obj (.text:radioOpDoneCb$8)
                  00003e50    000000f8     app_ble_pem3.oem3 (.text:xdc_runtime_System_printfExtend__I)
                  00003f48    000000ec     main.obj (.text:main)
                  00004034    000000ec     RFCC26XX_singleMode.obj (.text:rf_init$8)
                  00004120    000000dc     PINCC26XX.obj (.text:PINCC26XX_setIoCfg$7)
                  000041fc    000000dc     simple_gatt_profile.obj (.text:simpleProfile_WriteAttrCB$24)
                  000042d8    000000d4     power_cc26xx_tirtos.aem3 : PowerCC26XX_tirtos.oem3 (.text:PowerCC26XX_standbyPolicy)
                  000043ac    000000d4     drivers_cc26xxware.aem3 : PowerCC26XX.oem3 (.text:Power_releaseDependency)
                  00004480    000000d0                             : PowerCC26XX.oem3 (.text:Power_setDependency)
                  00004550    000000d0     RFCC26XX_singleMode.obj (.text:RF_open)
                  00004620    000000cc     RFCC26XX_singleMode.obj (.text:fsmPowerDownState$8)
                  000046ec    000000bc     UARTCC26XX.obj (.text:UARTCC26XX_initHw$13)
                  000047a8    000000b0     devinfoservice.obj (.text:devInfo_ReadAttrCB$20)
                  00004858    000000a8     UARTCC26XX.obj (.text:writeTxFifoFlush$13)
                  00004900    000000a0     TRNGCC26XX.obj (.text:TRNGCC26XX_getNumber)
                  000049a0    000000a0     auto_init.aem3 : auto_init.oem3 (.text)
                  00004a40    0000009e     rom_sysbios.aem3 : rom_sysbios.obj (.text:xdc_runtime_Text_putSite__E)
                  00004ade    0000009c     rtsv7M3_T_le_eabi.lib : memcpy_t2.obj (.text)
                  00004b7a    00000002     DisplayUart.obj (.text:DisplayUart_clear)
                  00004b7c    00000098     PINCC26XX.obj (.text:PIN_open)
                  00004c14    00000098     UARTCC26XX.obj (.text:UARTCC26XX_initIO$13)
                  00004cac    00000098     rom_sysbios.aem3 : rom_sysbios.obj (.text:ti_sysbios_knl_Clock_workFuncDynamic__E)
                  00004d44    00000094     icall.obj (.text:ICall_primSetTimer$15)
                  00004dd8    00000094     UARTCC26XX.obj (.text:writeFinishedDoCallback$13)
                  00004e6c    00000094     rom_sysbios.aem3 : rom_sysbios.obj (.text:xdc_runtime_Text_putMod__E)
                  00004f00    00000090     drivers_cc26xxware.aem3 : PowerCC26XX.oem3 (.text:switchXOSCHFclockFunc)
                  00004f90    0000008c     UARTCC26XX.obj (.text:UARTCC26XX_writeCancel)
                  0000501c    0000008c     gattservapp_util.obj (.text:gattServApp_SendNotiInd$22)
                  000050a8    00000088     driverlib.lib : osc.obj (.text:NOROM_OSCHF_GetStartupTime)
                  00005130    00000084     icall.obj (.text:ICall_heapMalloc)
                  000051b4    00000080     peripheral.obj (.text:gapRole_startConnUpdate$23)
                  00005234    0000007c     DisplayUart.obj (.text:DisplayUart_open)
                  000052b0    0000007c     RFCC26XX_singleMode.obj (.text:RF_pendCmd)
                  0000532c    0000007c     drivers_cc26xxware.aem3 : PowerCC26XX.oem3 (.text:disableLFClockQualifiers)
                  000053a8    0000007c     RFCC26XX_singleMode.obj (.text:swiFxnHw$8)
                  00005424    0000007a     rtsv7M3_T_le_eabi.lib : memset_t2.obj (.text)
                  0000549e    00000002     DisplayUart.obj (.text:DisplayUart_clearLines)
                  000054a0    00000078     simple_peripheral.obj (.text:SimpleBLEPeripheral_enqueueMsg$28)
                  00005518    00000074     icall_cc2650.obj (.text:ICallPlatform_pwrUpdActivityCounter)
                  0000558c    00000074     icall.obj (.text:ICall_primSend$15)
                  00005600    00000074     drivers_cc26xxware.aem3 : PowerCC26XX_calibrateRCOSC.oem3 (.text:PowerCC26XX_auxISR)
                  00005674    00000074     UARTCC26XX.obj (.text:UARTCC26XX_close)
                  000056e8    00000074     drivers_cc26xxware.aem3 : PowerCC26XX_calibrateRCOSC.oem3 (.text:calibrateRcoscHf2)
                  0000575c    00000074     rom_sysbios.aem3 : rom_sysbios.obj (.text:ti_sysbios_family_arm_cc26xx_Timer_start__E)
                  000057d0    0000006d                      : rom_sysbios.obj (.text:xdc_runtime_System_formatNum__I)
                  0000583d    00000001     --HOLE-- [fill = 0]
                  0000583e    00000002     RFCC26XX_singleMode.obj (.text:defaultErrCb$8)
                  00005840    0000006c     board_led.obj (.text:Board_ledControl)
                  000058ac    0000006c     icall.obj (.text:ICall_createRemoteTasks)
                  00005918    0000006c     drivers_cc26xxware.aem3 : PowerCC26XX.oem3 (.text:PowerCC26XX_calibrate)
                  00005984    00000068     driverlib.lib : sys_ctrl.obj (.text:NOROM_SysCtrl_DCDC_VoltageConditionalControl)
                  000059ec    00000068     UARTCC26XX.obj (.text:UARTCC26XX_readCancel)
                  00005a54    00000068     RFCC26XX_singleMode.obj (.text:decActiveClientCnt$8)
                  00005abc    00000068     rtsv7M3_T_le_eabi.lib : copy_decompress_lzss.obj (.text:decompress:lzss)
                  00005b24    00000064     simple_peripheral.obj (.text:SimpleBLEPeripheral_freeAttRsp$28)
                  00005b88    00000060     icall.obj (.text:ICall_primEnroll$15)
                  00005be8    00000060     drivers_cc26xxware.aem3 : PowerCC26XX_calibrateRCOSC.oem3 (.text:PowerCC26XX_RCOSC_clockFunc)
                  00005c48    00000060     UARTCC26XX.obj (.text:UARTCC26XX_control)
                  00005ca8    00000060     drivers_cc26xxware.aem3 : PowerCC26XX_calibrateRCOSC.oem3 (.text:updateSubSecInc)
                  00005d08    0000005e     DisplayUart.obj (.text:DisplayUart_put5)
                  00005d66    00000002     drivers_cc26xxware.aem3 : PowerCC26XX.oem3 (.text:emptyClockFunc)
                  00005d68    0000005c     icall.obj (.text:ICall_primThreadServes$15)
                  00005dc4    0000005c     driverlib.lib : osc.obj (.text:NOROM_OSCHF_AttemptToSwitchToXosc)
                  00005e20    0000005c                   : sys_ctrl.obj (.text:NOROM_SysCtrlAdjustRechargeAfterPowerDown)
                  00005e7c    0000005c     RFCC26XX_singleMode.obj (.text:fsmXOSCState$8)
                  00005ed8    0000005c     simple_gatt_profile.obj (.text:simpleProfile_ReadAttrCB$24)
                  00005f34    0000005c     app_ble_pem3.oem3 (.text:xdc_runtime_Startup_getState__I)
                  00005f90    0000005b     rom_sysbios.aem3 : rom_sysbios.obj (.text:xdc_runtime_Text_putLab__E)
                  00005feb    00000001     --HOLE-- [fill = 0]
                  00005fec    00000058     PINCC26XX.obj (.text:PIN_remove)
                  00006044    00000058     drivers_cc26xxware.aem3 : PowerCC26XX_calibrateRCOSC.oem3 (.text:PowerCC26XX_initiateCalibration)
                  0000609c    00000058     RFCC26XX_singleMode.obj (.text:RF_getCurrentTime)
                  000060f4    00000054     icall.obj (.text:ICall_primFetchMsg$15)
                  00006148    00000054     drivers_cc26xxware.aem3 : PowerCC26XX.oem3 (.text:configureXOSCHF)
                  0000619c    00000054     RFCC26XX_singleMode.obj (.text:hwiFxnHw$8)
                  000061f0    00000054     RFCC26XX_singleMode.obj (.text:ratChanFree$8)
                  00006244    00000054     rtsv7M3_T_le_eabi.lib : exit.obj (.text)
                  00006298    00000052     icall.obj (.text:ICall_primWait$15)
                  000062ea    00000002     rtsv7M3_T_le_eabi.lib : i_div0.obj (.text)
                  000062ec    00000050     icall_api.obj (.text:GAP_UpdateAdvertisingData)
                  0000633c    00000050     icall.obj (.text:ICall_primRegisterApp$15)
                  0000638c    00000050     RFCC26XX_singleMode.obj (.text:RF_getInfo)
                  000063dc    00000050     util.obj (.text:Util_convertBdAddr2Str)
                  0000642c    00000050     UARTCC26XX.obj (.text:startTxFifoEmptyClk$13)
                  0000647c    0000004c     icall.obj (.text:ICall_newTask$15)
                  000064c8    0000004c     icall.obj (.text:ICall_primGetEntityId$15)
                  00006514    0000004c     driverlib.lib : osc.obj (.text:NOROM_OSCClockSourceSet)
                  00006560    0000004c     rtsv7M3_T_le_eabi.lib : cpy_tbl.obj (.text)
                  000065ac    0000004c     RFCC26XX_singleMode.obj (.text:syncCb$8)
                  000065f8    00000048     peripheral.obj (.text:GAPRole_TerminateConnection)
                  00006640    00000048     driverlib.lib : chipinfo.obj (.text:NOROM_ChipInfo_GetChipFamily)
                  00006688    00000048                   : ddi.obj (.text:NOROM_DDI16BitfieldWrite)
                  000066d0    00000048     util.obj (.text:Util_constructClock)
                  00006718    00000048     icall_api.obj (.text:gattIndNoti$18)
                  00006760    00000048     drivers_cc26xxware.aem3 : PowerCC26XX.oem3 (.text:notify)
                  000067a8    00000046                             : RingBuf.oem3 (.text:RingBuf_put)
                  000067ee    00000002     rom_sysbios.aem3 : rom_sysbios.obj (.text:ti_sysbios_BIOS_linkedWithIncorrectBootLibrary__E)
                  000067f0    00000044     PINCC26XX.obj (.text:PIN_swi$7)
                  00006834    00000044     simple_gatt_profile.obj (.text:SimpleProfile_GetParameter)
                  00006878    00000044     boot.aem3 : boot.oem3 (.text)
                  000068bc    00000044     icall_api.obj (.text:gapSendParamAndPtrCmd$18)
                  00006900    00000044     rom_sysbios.aem3 : rom_sysbios.obj (.text:xdc_runtime_Text_xprintf__I)
                  00006944    00000042     icall.obj (.text:ICall_primCreateTask$15)
                  00006986    00000002     app_ble_pem3.oem3 (.text:ti_sysbios_BIOS_nullFunc__I)
                  00006988    00000040     Display.obj (.text:Display_doOpen)
                  000069c8    00000040     peripheral.obj (.text:GAPRole_createTask)
                  00006a08    00000040     driverlib.lib : ddi.obj (.text:NOROM_DDI16BitfieldRead)
                  00006a48    00000040     RFCC26XX_singleMode.obj (.text:RF_getRssi)
                  00006a88    00000040     drivers_cc26xxware.aem3 : RingBuf.oem3 (.text:RingBuf_get)
                  00006ac8    00000040     rtsv7M3_T_le_eabi.lib : u_divt2.obj (.text)
                  00006b08    0000003e     icall_api.obj (.text:hciSendParamsCmd$18)
                  00006b46    00000002     rom_sysbios.aem3 : rom_sysbios.obj (.text:ti_sysbios_knl_Clock_triggerFunc__I)
                  00006b48    0000003c     board_led.obj (.text:Board_ledFlashTimeoutCB$1)
                  00006b84    0000003c     icall_api.obj (.text:GAP_GetParamValue)
                  00006bc0    0000003c     icall_api.obj (.text:GATTServApp_RegisterService)
                  00006bfc    0000003c     icall_cc2650.obj (.text:ICallPlatform_pwrConfigACAction)
                  00006c38    0000003c     icall.obj (.text:ICall_primFetchServiceMsg$15)
                  00006c74    0000003c     driverlib.lib : osc.obj (.text:NOROM_OSC_HPOSCRelativeFrequencyOffsetGet)
                  00006cb0    0000003c     simple_peripheral.obj (.text:SimpleBLEPeripheral_createTask)
                  00006cec    0000003c     RFCC26XX_singleMode.obj (.text:dispatchOpWhen$8)
                  00006d28    0000003c     RFCC26XX_singleMode.obj (.text:postDirImmCmd$8)
                  00006d64    0000003c     icall_api.obj (.text:profileSetParameter$18)
                  00006da0    0000003c     UARTCC26XX.obj (.text:readData$13)
                  00006ddc    0000003c     icall_api.obj (.text:sendWaitMatchCS$18)
                  00006e18    0000003c     icall_api.obj (.text:sendWaitMatchValueCS$18)
                  00006e54    00000038     icall.obj (.text:ICall_primGetMaxMSecs$15)
                  00006e8c    00000038     PINCC26XX.obj (.text:PIN_setOutputValue)
                  00006ec4    00000038     UARTCC26XX.obj (.text:UARTCC26XX_swiIntFxn)
                  00006efc    00000038     util.obj (.text:Util_restartClock)
                  00006f34    00000038     rom_sysbios.aem3 : rom_sysbios.obj (.text:ti_sysbios_family_arm_cc26xx_Timer_getCurrentTick__E)
                  00006f6c    00000038     UARTCC26XX.obj (.text:writeData$13)
                  00006fa4    00000036     icall_api.obj (.text:waitMatchCS$18)
                  00006fda    00000002     app_ble_pem3.oem3 (.text:ti_sysbios_rom_cortexm_cc26xx_CC26xx_badRomRevision__E)
                  00006fdc    00000034     icall_api.obj (.text:GAPBondMgr_SetParameter)
                  00007010    00000034     icall_api.obj (.text:GAP_SetParamValue)
                  00007044    00000034     icall.obj (.text:ICall_primEntityId2ServiceId$15)
                  00007078    00000034     icall.obj (.text:ICall_primRegisterISR$15)
                  000070ac    00000034     icall.obj (.text:ICall_primRegisterISR_Ext$15)
                  000070e0    00000034     icall.obj (.text:ICall_searchServiceEntity)
                  00007114    00000034     driverlib.lib : ddi.obj (.text:NOROM_DDI32RegWrite)
                  00007148    00000034                   : osc.obj (.text:NOROM_OSCHF_SwitchToRcOscTurnOffXosc)
                  0000717c    00000034     drivers_cc26xxware.aem3 : PowerCC26XX.oem3 (.text:PowerCC26XX_isStableXOSC_HF)
                  000071b0    00000034     RFCC26XX_singleMode.obj (.text:Q_push$8)
                  000071e4    00000034     RFCC26XX_singleMode.obj (.text:RF_runCmd)
                  00007218    00000034     icall_api.obj (.text:osal_snv_read)
                  0000724c    00000034     icall_api.obj (.text:osal_snv_write)
                  00007280    00000034     icall_api.obj (.text:profileAddService$18)
                  000072b4    00000034     UARTCC26XX.obj (.text:readData2RingBuf$13)
                  000072e8    00000034     icall_api.obj (.text:registerTask$18)
                  0000731c    00000034     rom_sysbios.aem3 : rom_sysbios.obj (.text:ti_sysbios_family_arm_cc26xx_Timer_initDevice__I)
                  00007350    00000032     icall_api.obj (.text:gapSendParamsCmd$18)
                  00007382    00000032     icall_api.obj (.text:gapSendPtrParamsCmd$18)
                  000073b4    00000032     icall_api.obj (.text:matchGapSetGetParamCS$18)
                  000073e6    00000032     icall_api.obj (.text:matchGattCmdStatus$18)
                  00007418    00000032     icall_api.obj (.text:matchUtilNvCS$18)
                  0000744a    00000032     rom_sysbios.aem3 : rom_sysbios.obj (.text:ti_sysbios_family_arm_cc26xx_Timer_setNextTick__E)
                  0000747c    00000030     icall_cc2650.obj (.text:ICallPlatform_pwrNotify$16)
                  000074ac    00000030     icall_cc2650.obj (.text:ICallPlatform_pwrRegisterNotify)
                  000074dc    00000030     icall.obj (.text:ICall_dispatch$15)
                  0000750c    00000030     icall.obj (.text:ICall_msecs2Ticks$15)
                  0000753c    00000030     icall.obj (.text:ICall_searchTask$15)
                  0000756c    00000030     driverlib.lib : setup_rom.obj (.text:NOROM_SetupSetAonRtcSubSecInc)
                  0000759c    00000030                   : trng.obj (.text:NOROM_TRNGConfigure)
                  000075cc    00000030     drivers_cc26xxware.aem3 : PowerCC26XX.oem3 (.text:Power_releaseConstraint)
                  000075fc    00000030                             : PowerCC26XX.oem3 (.text:Power_setConstraint)
                  0000762c    00000030     app_ble_pem3.oem3 (.text:ti_sysbios_BIOS_atExitFunc__I)
                  0000765c    00000030     app_ble_pem3.oem3 (.text:ti_sysbios_BIOS_startFunc__I)
                  0000768c    00000030     rom_sysbios.aem3 : rom_sysbios.obj (.text:ti_sysbios_family_arm_cc26xx_Timer_setThreshold__I)
                  000076bc    0000002f                      : rom_sysbios.obj (.text:xdc_runtime_Text_printVisFxn__I)
                  000076eb    00000001     --HOLE-- [fill = 0]
                  000076ec    0000002e     icall_cc2650.obj (.text:ICallPlatform_pwrDispenseImpl$16)
                  0000771a    0000002e     icall_cc2650.obj (.text:ICallPlatform_pwrRequireImpl$16)
                  00007748    0000002c     board_key.obj (.text:Board_keyCallback$0)
                  00007774    0000002c     icall_api.obj (.text:HCI_EXT_ConnEventNoticeCmd)
                  000077a0    0000002c     icall.obj (.text:ICall_heapFree)
                  000077cc    0000002c     icall.obj (.text:ICall_msgEnqueue$15)
                  000077f8    0000002c     icall.obj (.text:ICall_primAllocMsg$15)
                  00007824    0000002c     icall_api.obj (.text:ICall_sendServiceMsg$18)
                  00007850    0000002c     PINCC26XX.obj (.text:PINCC26XX_setMux)
                  0000787c    0000002c     PINCC26XX.obj (.text:PIN_setConfig)
                  000078a8    0000002c     RFCC26XX_singleMode.obj (.text:getCmd$8)
                  000078d4    0000002c     icall_api.obj (.text:hciSendCmd$18)
                  00007900    0000002c     icall_api.obj (.text:matchProfileAddServiceCS$18)
                  0000792c    0000002c     rom_sysbios.aem3 : rom_sysbios.obj (.text:ti_sysbios_knl_Clock_getTicksUntilInterrupt__E)
                  00007958    0000002a     icall_api.obj (.text:ICall_waitMatch$18)
                  00007982    0000002a     icall_api.obj (.text:matchProfileCS$18)
                  000079ac    0000002a     rom_sysbios.aem3 : rom_sysbios.obj (.text:xdc_runtime_System_putchar__I)
                  000079d6    00000002                      : rom_sysbios.obj (.text:xdc_runtime_SysCallback_defaultAbort)
                  000079d8    00000028     driverlib.lib : aon_batmon.obj (.text:NOROM_AONBatMonTemperatureGetDegC)
                  00007a00    00000028                   : rfc.obj (.text:NOROM_RFCDoorbellSendTo)
                  00007a28    00000028     drivers_cc26xxware.aem3 : PowerCC26XX.oem3 (.text:PowerCC26XX_switchXOSC_HF)
                  00007a50    00000028                             : PowerCC26XX.oem3 (.text:Power_registerNotify)
                  00007a78    00000028     driverlib.lib : adi.obj (.text:SafeHapiVoid)
                  00007aa0    00000028     TRNGCC26XX.obj (.text:TRNGCC26XX_init)
                  00007ac8    00000028     RFCC26XX_singleMode.obj (.text:clkPowerUpFxn$8)
                  00007af0    00000026     drivers_cc26xxware.aem3 : List.oem3 (.text:List_put)
                  00007b16    00000024     icall_api.obj (.text:ICall_getLocalMsgEntityId$18)
                  00007b3a    00000002     rom_sysbios.aem3 : rom_sysbios.obj (.text:xdc_runtime_SysCallback_defaultExit)
                  00007b3c    00000024     drivers_cc26xxware.aem3 : PowerCC26XX_calibrateRCOSC.oem3 (.text:getTdcSemaphore)
                  00007b60    00000024     RFCC26XX_singleMode.obj (.text:hwiFxnCpe0PowerFsm$8)
                  00007b84    00000024     app_ble_pem3.oem3 (.text:ti_sysbios_BIOS_registerRTSLock__I)
                  00007ba8    00000024     app_ble_pem3.oem3 (.text:ti_sysbios_BIOS_removeRTSLock__I)
                  00007bcc    00000024     rom_sysbios.aem3 : rom_sysbios.obj (.text:ti_sysbios_family_arm_cc26xx_Timer_getMaxTicks__E)
                  00007bf0    00000022     Display.obj (.text:Display_doPut5)
                  00007c12    00000020     icall_api.obj (.text:ICall_allocMsg$18)
                  00007c32    00000020     icall_api.obj (.text:ICall_getEntityId$18)
                  00007c52    00000002     rom_sysbios.aem3 : rom_sysbios.obj (.text:xdc_runtime_SysCallback_defaultPutch)
                  00007c54    00000020     icall.obj (.text:ICall_primService$15)
                  00007c74    00000020     drivers_cc26xxware.aem3 : PowerCC26XX.oem3 (.text:Power_unregisterNotify)
                  00007c94    00000020     gattservapp_util.obj (.text:gattServApp_FindCharCfgItem$22)
                  00007cb4    00000020     app_ble_pem3.oem3 (.text:ti_sysbios_BIOS_rtsLock__I)
                  00007cd4    00000020     rom_sysbios.aem3 : rom_sysbios.obj (.text:ti_sysbios_family_arm_cc26xx_Timer_dynamicStub__E)
                  00007cf4    00000020                      : rom_sysbios.obj (.text:ti_sysbios_knl_Clock_stop__E)
                  00007d14    00000020                      : rom_sysbios.obj (.text:xdc_runtime_Registry_findById__E)
                  00007d34    0000001e     icall.obj (.text:ICall_primSendServiceMsg$15)
                  00007d52    0000001e     PINCC26XX.obj (.text:PIN_close)
                  00007d70    0000001e     drivers_cc26xxware.aem3 : PowerCC26XX.oem3 (.text:Power_getTransitionLatency)
                  00007d8e    0000001e     icall_api.obj (.text:matchHciCS$18)
                  00007dac    0000001c     driverlib.lib : osc.obj (.text:NOROM_OSCClockSourceGet)
                  00007dc8    0000001c     PINCC26XX.obj (.text:PINCC26XX_setIoCfgMux$7)
                  00007de4    0000001c     PINCC26XX.obj (.text:PIN_hwi$7)
                  00007e00    0000001c     RFCC26XX_singleMode.obj (.text:RF_runDirectCmd)
                  00007e1c    0000001c     RFCC26XX_singleMode.obj (.text:RF_runImmediateCmd)
                  00007e38    0000001c     TRNGCC26XX.obj (.text:TRNGCC26XX_open)
                  00007e54    0000001c     icall_api.obj (.text:getStatusValueFromErrNo$18)
                  00007e70    0000001c     TRNGCC26XX.obj (.text:openTRNG)
                  00007e8c    0000001a     icall.obj (.text:ICall_enterCSImpl)
                  00007ea6    0000001a     icall.obj (.text:ICall_primSetTimerMSecs$15)
                  00007ec0    0000001a     drivers_cc26xxware.aem3 : List.oem3 (.text:List_remove)
                  00007eda    0000001a     icall_api.obj (.text:matchGattIndNotiCS$18)
                  00007ef4    0000001a     rom_sysbios.aem3 : rom_sysbios_config.obj (.text:xdc_runtime_System_snprintf__E)
                  00007f0e    00000018     DisplayUart.obj (.text:DisplayUart_close)
                  00007f26    00000002     --HOLE-- [fill = 0]
                  00007f28    00000018     icall_api.obj (.text:GATT_bm_free)
                  00007f40    00000018     icall_cc2650.obj (.text:ICallPlatform_pwrDispense)
                  00007f58    00000018     icall_cc2650.obj (.text:ICallPlatform_pwrRequire)
                  00007f70    00000018     util.obj (.text:ICall_free$2)
                  00007f88    00000018     icall_api.obj (.text:ICall_freeMsg$18)
                  00007fa0    00000018     simple_peripheral.obj (.text:ICall_freeMsg$28)
                  00007fb8    00000018     icall.obj (.text:ICall_primMalloc$15)
                  00007fd0    00000018     driverlib.lib : aon_rtc.obj (.text:NOROM_AONRTCCurrentCompareValueGet)
                  00007fe8    00000018                   : chipinfo.obj (.text:NOROM_ChipInfo_GetPackageType)
                  00008000    00000018                   : osc.obj (.text:NOROM_OSCHF_TurnOnXosc)
                  00008018    00000018                   : rfc.obj (.text:NOROM_RFCCpeIntGetAndClear)
                  00008030    00000018     drivers_cc26xxware.aem3 : PowerCC26XX.oem3 (.text:Power_idleFunc)
                  00008048    00000018     RFCC26XX_singleMode.obj (.text:Q_pop$8)
                  00008060    00000018     UARTCC26XX.obj (.text:UARTCC26XX_init)
                  00008078    00000018     drivers_cc26xxware.aem3 : PowerCC26XX.oem3 (.text:configureRFCoreClocks)
                  00008090    00000018     peripheral.obj (.text:gapRole_setEvent$23)
                  000080a8    00000018     rtsv7M3_T_le_eabi.lib : args_main.obj (.text)
                  000080c0    00000018                           : ll_mul_t2.obj (.text)
                  000080d8    00000018     RFCC26XX_singleMode.obj (.text:swiFxnFsm$8)
                  000080f0    00000018     app_ble_pem3.oem3 (.text:ti_sysbios_BIOS_rtsUnlock__I)
                  00008108    00000018     rom_sysbios.aem3 : rom_sysbios.obj (.text:ti_sysbios_knl_Swi_or__E)
                  00008120    00000018     app_ble_pem3.oem3 (.text:ti_sysbios_rom_cortexm_cc26xx_CC26xx_checkRevision__E)
                  00008138    00000016     icall.obj (.text:ICall_leaveCSImpl)
                  0000814e    00000016     icall.obj (.text:ICall_primStopTimer$15)
                  00008164    00000016     ble_user_config.obj (.text:driverTable_fnSpinlock)
                  0000817a    00000016     app_ble_pem3.oem3 (.text:ti_sysbios_BIOS_exitFunc__I)
                  00008190    00000014     board_key.obj (.text:Board_keyChangeHandler$0)
                  000081a4    00000014     board_led.obj (.text:Board_ledIdParser$1)
                  000081b8    00000014     driverlib.lib : aon_rtc.obj (.text:NOROM_AONRTCCurrent64BitValueGet)
                  000081cc    00000014     PINCC26XX.obj (.text:PINCC26XX_getInputValue$7)
                  000081e0    00000014     PINCC26XX.obj (.text:PINCC26XX_getOutputValue$7)
                  000081f4    00000014     simple_peripheral.obj (.text:SimpleBLEPeripheral_clockHandler$28)
                  00008208    00000014     rtsv7M3_T_le_eabi.lib : _lock.obj (.text)
                  0000821c    00000014                           : strlen.obj (.text)
                  00008230    00000014     icall_api.obj (.text:setICallCmdEvtHdr$18)
                  00008244    00000014     app_ble_pem3.oem3 (.text:ti_sysbios_knl_Clock_doTick__I)
                  00008258    00000012     RFCC26XX_singleMode.obj (.text:RF_getCmdOp)
                  0000826a    00000012     drivers_cc26xxware.aem3 : RingBuf.oem3 (.text:RingBuf_construct)
                  0000827c    00000012     app_ble_pem3.oem3 (.text:xdc_runtime_Startup_exec__I)
                  0000828e    00000002     --HOLE-- [fill = 0]
                  00008290    00000010     icall_api.obj (.text:GAP_EndDiscoverable)
                  000082a0    00000010     icall_cc2650.obj (.text:ICallPlatform_pwrGetXOSCStartupTime)
                  000082b0    00000010     icall.obj (.text:ICall_primGetTickPeriod$15)
                  000082c0    00000010     icall.obj (.text:ICall_taskEntry$15)
                  000082d0    00000010     util.obj (.text:Util_isActive)
                  000082e0    00000010     rom_sysbios.aem3 : rom_sysbios.obj (.text:ti_sysbios_family_arm_m3_Hwi_post__E)
                  000082f0    00000010     UARTCC26XX.obj (.text:uartPostNotify$13)
                  00008300    00000010     rom_sysbios.aem3 : rom_sysbios.obj (.text:xdc_runtime_SysCallback_putch__E)
                  00008310    00000010                      : rom_sysbios.obj (.text:xdc_runtime_SysCallback_ready__E)
                  00008320    00000010                      : rom_sysbios.obj (.text:xdc_runtime_System_vsnprintf__E)
                  00008330    0000000e     icall_cc2650.obj (.text:ICallPlatform_pwrGetTransitionState)
                  0000833e    0000000e     icall_cc2650.obj (.text:ICallPlatform_pwrIsStableXOSCHF)
                  0000834c    0000000e     icall.obj (.text:ICall_primDisableMInt$15)
                  0000835a    0000000e     icall.obj (.text:ICall_primEnableMInt$15)
                  00008368    0000000e     icall.obj (.text:ICall_primFreeMsg$15)
                  00008376    0000000e     icall.obj (.text:ICall_primGetTicks$15)
                  00008384    0000000e     driverlib.lib : vims.obj (.text:NOROM_VIMSModeGet)
                  00008392    0000000e     rtsv7M3_T_le_eabi.lib : copy_decompress_none.obj (.text:decompress:none)
                  000083a0    0000000e     icall_api.obj (.text:matchGSARegisterServiceCS$18)
                  000083ae    0000000e     icall_api.obj (.text:matchGapLinkEstCS$18)
                  000083bc    0000000e     icall_api.obj (.text:matchGattSendRspCS$18)
                  000083ca    0000000e     icall_api.obj (.text:matchLinkDBGetInfoCS$18)
                  000083d8    0000000e     icall_api.obj (.text:matchLinkDBNumActiveCS$18)
                  000083e6    0000000e     icall_api.obj (.text:matchLinkDBNumConnsCS$18)
                  000083f4    0000000e     icall_api.obj (.text:setDispatchCmdEvtHdr$18)
                  00008402    0000000e     rom_sysbios.aem3 : rom_sysbios.obj (.text:ti_sysbios_family_arm_cc26xx_TimestampProvider_get32__E)
                  00008410    0000000c     RFCC26XX_singleMode.obj (.text:FsmNextState$8)
                  0000841c    0000000c     icall.obj (.text:ICall_clockFunc$15)
                  00008428    0000000c     icall.obj (.text:ICall_primDisableInt$15)
                  00008434    0000000c     icall.obj (.text:ICall_primEnableInt$15)
                  00008440    0000000c     icall.obj (.text:ICall_primFree$15)
                  0000844c    0000000c     icall.obj (.text:ICall_primSignal$15)
                  00008458    0000000c     driverlib.lib : cpu.obj (.text:NOROM_CPUcpsid)
                  00008464    0000000c                   : cpu.obj (.text:NOROM_CPUcpsie)
                  00008470    0000000c     drivers_cc26xxware.aem3 : PowerCC26XX.oem3 (.text:Power_getConstraintMask)
                  0000847c    0000000c                             : PowerCC26XX.oem3 (.text:Power_getDependencyCount)
                  00008488    0000000c                             : PowerCC26XX.oem3 (.text:Power_getTransitionState)
                  00008494    0000000c     rtsv7M3_T_le_eabi.lib : copy_zero_init.obj (.text:decompress:ZI)
                  000084a0    0000000c     icall_api.obj (.text:matchProfileSetParamCS$18)
                  000084ac    0000000c     rom_sysbios.aem3 : rom_sysbios.obj (.text:ti_sysbios_BIOS_getThreadType__E)
                  000084b8    0000000c                      : rom_sysbios_config.obj (.text:ti_sysbios_hal_Hwi_Params__init__S)
                  000084c4    0000000c                      : rom_sysbios.obj (.text:ti_sysbios_knl_Swi_getTrigger__E)
                  000084d0    0000000c     app_ble_pem3.oem3 (.text:xdc_runtime_Startup_reset__I)
                  000084dc    0000000c     rom_sysbios.aem3 : rom_sysbios.obj (.text:xdc_runtime_Startup_rtsDone__E)
                  000084e8    0000000a     icall_cc2650.obj (.text:ICallPlatform_pwrSwitchXOSCHF)
                  000084f2    0000000a     icall.obj (.text:ICall_primE2S$15)
                  000084fc    0000000a     drivers_cc26xxware.aem3 : List.oem3 (.text:List_empty)
                  00008506    00000008     RFCC26XX_singleMode.obj (.text:RF_flushCmd)
                  0000850e    00000008     simple_peripheral.obj (.text:SimpleBLEPeripheral_charValueChangeCB$28)
                  00008516    00000008     simple_peripheral.obj (.text:SimpleBLEPeripheral_keyChangeHandler)
                  0000851e    00000008     simple_peripheral.obj (.text:SimpleBLEPeripheral_stateChangeCB$28)
                  00008526    00000008     icall_api.obj (.text:matchHciExtConnEventNoticeCS$18)
                  0000852e    00000008     icall_api.obj (.text:matchHciLeReadMaxDataLenCS$18)
                  00008536    00000008     UARTCC26XX.obj (.text:readSemCallback$13)
                  0000853e    00000008     UARTCC26XX.obj (.text:writeSemCallback$13)
                  00008546    00000008     app_ble_pem3.oem3 (.text:xdc_runtime_Text_visitRope__I)
                  0000854e    00000006     DisplayUart.obj (.text:DisplayUart_control)
                  00008554    00000006     DisplayUart.obj (.text:DisplayUart_getType)
                  0000855a    00000006     PINCC26XX.obj (.text:PIN_registerIntCb)
                  00008560    00000006     UARTCC26XX.obj (.text:UARTCC26XX_readPolling)
                  00008566    00000006     UARTCC26XX.obj (.text:UARTCC26XX_writePolling)
                  0000856c    00000006     RFCC26XX_singleMode.obj (.text:clkInactivityFxn$8)
                  00008572    00000006     icall_api.obj (.text:matchBondMgrSetParamCS$18)
                  00008578    00000006     icall_api.obj (.text:matchGGSSetParamCS$18)
                  0000857e    00000006     icall_api.obj (.text:matchGapConnParamUpdateReplyCS$18)
                  00008584    00000006     icall_api.obj (.text:matchGapDeviceInitCS$18)
                  0000858a    00000006     icall_api.obj (.text:matchGapEndDiscoverableCS$18)
                  00008590    00000006     icall_api.obj (.text:matchGapGetParamCS$18)
                  00008596    00000006     icall_api.obj (.text:matchGapMakeDiscoverableCS$18)
                  0000859c    00000006     icall_api.obj (.text:matchGapSetParamCS$18)
                  000085a2    00000006     icall_api.obj (.text:matchGapTerminateAuthCS$18)
                  000085a8    00000006     icall_api.obj (.text:matchGapTerminateLinkReqCS$18)
                  000085ae    00000006     icall_api.obj (.text:matchGapUpdateAdvDataCS$18)
                  000085b4    00000006     icall_api.obj (.text:matchGapUpdateLinkParamReqCS$18)
                  000085ba    00000006     icall_api.obj (.text:matchUtilNvReadCS$18)
                  000085c0    00000006     icall_api.obj (.text:matchUtilNvWriteCS$18)
                  000085c6    00000006     rom_sysbios.aem3 : rom_sysbios.obj (.text:ti_sysbios_family_arm_m3_Hwi_setFunc__E)
                  000085cc    00000004     tirtosport.aem3 : HwiP_tirtos.oem3 (.text:HwiP_disable)
                  000085d0    00000004     drivers_cc26xxware.aem3 : List.oem3 (.text:List_next)
                  000085d4    00000004     RFCC26XX_singleMode.obj (.text:Q_peek$8)
                  000085d8    00000004     util.obj (.text:Util_startClock)
                  000085dc    00000004     util.obj (.text:Util_stopClock)
                  000085e0    00000004     drivers_cc26xxware.aem3 : PowerCC26XX.oem3 (.text:nopResourceHandler)
                  000085e4    00000004     rom_sysbios.aem3 : rom_sysbios.obj (.text:ti_sysbios_family_arm_cc26xx_Timer_getCount64__E)
                  000085e8    00000004                      : rom_sysbios.obj (.text:ti_sysbios_knl_Clock_isActive__E)
                  000085ec    00000004                      : rom_sysbios.obj (.text:xdc_runtime_SysCallback_defaultReady)
                  000085f0    00000004                      : rom_sysbios.obj (.text:xdc_runtime_System_snprintf_va__F)
                  000085f4    00000008     (.tramp.xdc_runtime_Core_assignParams__I.1)
                  000085fc    00000008     (.tramp.ti_sysbios_hal_Hwi_enableInterrupt__E.1)
                  00008604    00000008     (.tramp.ti_sysbios_hal_Hwi_disableInterrupt__E.1)
                  0000860c    00000008     (.tramp.ti_sysbios_knl_Task_enable__E.1)
                  00008614    00000008     (.tramp.ti_sysbios_family_arm_m3_Hwi_enableFxn__E.1)
                  0000861c    00000008     (.tramp.xdc_runtime_Startup_startMods__I.1)
                  00008624    00000008     (.tramp.ti_sysbios_knl_Clock_logTick__E.1)
                  0000862c    00000008     (.tramp.ti_sysbios_BIOS_RtsGateProxy_leave__E.1)
                  00008634    00000008     (.tramp.ti_sysbios_BIOS_RtsGateProxy_enter__E.1)
                  0000863c    00000008     (.tramp.ti_sysbios_knl_Task_startup__E.1)
                  00008644    00000008     (.tramp.ti_sysbios_knl_Swi_startup__E.1)
                  0000864c    00000008     (.tramp.ti_sysbios_hal_Hwi_startup__E.1)
                  00008654    00000008     (.tramp.ti_sysbios_family_arm_cc26xx_Timer_startup__E.1)
                  0000865c    00000008     (.tramp.xdc_runtime_System_atexit__E.1)
                  00008664    00000008     (.tramp.ti_sysbios_BIOS_setThreadType__E.1)
                  0000866c    00000008     (.tramp.ti_sysbios_hal_Hwi_create.1)
                  00008674    00000008     (.tramp.ti_sysbios_knl_Task_construct.1)
                  0000867c    00000008     (.tramp.xdc_runtime_System_exit__E.1)
                  00008684    00000008     (.tramp.ti_sysbios_knl_Semaphore_create.1)
                  0000868c    00000008     (.tramp.ti_sysbios_knl_Task_create.1)
                  00008694    00000008     (.tramp.ti_sysbios_knl_Task_Params__init__S.1)
                  0000869c    00000008     (.tramp.ti_sysbios_knl_Clock_destruct.1)
                  000086a4    00000008     (.tramp.ti_sysbios_knl_Semaphore_destruct.1)
                  000086ac    00000008     (.tramp.ti_sysbios_knl_Swi_destruct.1)
                  000086b4    00000008     (.tramp.ti_sysbios_family_arm_m3_Hwi_destruct.1)
                  000086bc    00000008     (.tramp.ti_sysbios_knl_Queue_put__E.1)
                  000086c4    00000008     (.tramp.ti_sysbios_knl_Clock_create.1)
                  000086cc    00000008     (.tramp.ti_sysbios_knl_Clock_scheduleNextTick__E.1)
                  000086d4    00000008     (.tramp.ti_sysbios_knl_Clock_walkQueueDynamic__E.1)
                  000086dc    00000008     (.tramp.ti_sysbios_knl_Clock_TimerProxy_getCurrentTick__E.1)
                  000086e4    00000008     (.tramp.ti_sysbios_BIOS_getCpuFreq__E.1)
                  000086ec    00000008     (.tramp.ti_sysbios_BIOS_start__E.1)
                  000086f4    00000008     (.tramp.ti_sysbios_family_arm_m3_Hwi_enableInterrupt__E.1)
                  000086fc    00000008     (.tramp.ti_sysbios_knl_Semaphore_post__E.1)
                  00008704    00000008     (.tramp.ti_sysbios_knl_Clock_getTicks__E.1)
                  0000870c    00000008     (.tramp.ti_sysbios_knl_Task_self__E.1)
                  00008714    00000008     (.tramp.ti_sysbios_knl_Swi_post__E.1)
                  0000871c    00000008     (.tramp.ti_sysbios_knl_Semaphore_pend__E.1)
                  00008724    00000008     (.tramp.xdc_runtime_System_abortSpin__E.1)
                  0000872c    00000008     (.tramp.ti_sysbios_knl_Clock_construct.1)
                  00008734    00000008     (.tramp.ti_sysbios_knl_Clock_Params__init__S.1)
                  0000873c    00000008     (.tramp.ti_sysbios_knl_Clock_start__E.1)
                  00008744    00000008     (.tramp.ti_sysbios_knl_Clock_setTimeout__E.1)
                  0000874c    00000008     (.tramp.ti_sysbios_knl_Swi_construct.1)
                  00008754    00000008     (.tramp.ti_sysbios_knl_Swi_Params__init__S.1)
                  0000875c    00000008     (.tramp.ti_sysbios_family_arm_m3_Hwi_construct.1)
                  00008764    00000008     (.tramp.ti_sysbios_family_arm_m3_Hwi_Params__init__S.1)
                  0000876c    00000008     (.tramp.ti_sysbios_knl_Semaphore_construct.1)
                  00008774    00000008     (.tramp.ti_sysbios_knl_Semaphore_Params__init__S.1)
                  0000877c    00000008     (.tramp.ti_sysbios_knl_Task_restore__E.1)
                  00008784    00000008     (.tramp.ti_sysbios_knl_Swi_restore__E.1)
                  0000878c    00000008     (.tramp.ti_sysbios_knl_Swi_disable__E.1)
                  00008794    00000008     (.tramp.ti_sysbios_knl_Task_disable__E.1)
                  0000879c    00000008     (.tramp.ti_sysbios_family_arm_m3_Hwi_restoreFxn__E.1)
                  000087a4    00000008     (.tramp.ti_sysbios_family_arm_m3_Hwi_disableFxn__E.1)
                  000087ac    00000008     (.tramp.ti_sysbios_knl_Queue_empty__E.1)
                  000087b4    00000008     (.tramp.ti_sysbios_knl_Queue_get__E.1)
                  000087bc    00000008     (.tramp.ti_sysbios_knl_Queue_construct.1)

.const     0    000087c4    00000448     
                  000087c4    000000cc     icall.obj (.const:$O10$$)
                  00008890    0000004c     drivers_cc26xxware.aem3 : PowerCC26XX.oem3 (.const:resourceDB)
                  000088dc    0000004c     ble_user_config.obj (.const:rfDriverTable)
                  00008928    00000048     app_ble_pem3.oem3 (.const:.string)
                  00008970    00000040     UARTCC26XX.obj (.const:$O8$$)
                  000089b0    0000002c     gatt_uuid.obj (.const:$O16$$)
                  000089dc    0000002c     board.obj (.const:BoardGpioInitTable)
                  00008a08    00000028     UARTCC26XX.obj (.const:UARTCC26XX_fxnTable)
                  00008a30    00000027     ble_user_config.obj (.const:txPowerTable)
                  00008a57    00000001     Display.obj (.const:Display_defaultParams)
                  00008a58    00000024     UART.obj (.const:UART_defaultParams)
                  00008a7c    00000024     app_ble_pem3.oem3 (.const:xdc_runtime_Startup_sfxnTab__A)
                  00008aa0    00000020     board.obj (.const:uartCC26XXHWAttrs)
                  00008ac0    0000001c     DisplayUart.obj (.const:DisplayUart_fxnTable)
                  00008adc    00000018     board.obj (.const:Display_config)
                  00008af4    00000018     board.obj (.const:UART_config)
                  00008b0c    00000014     RFCC26XX_singleMode.obj (.const:RF_defaultParams$8)
                  00008b20    00000014     board.obj (.const:displayUartHWAttrs)
                  00008b34    00000012     app_ble_pem3.oem3 (.const:xdc_runtime_Startup_sfxnRts__A)
                  00008b46    00000011     util.obj (.const:.string:$P$T0$2$2)
                  00008b57    00000001     app_ble_pem3.oem3 (.const:xdc_runtime_Text_charTab__A)
                  00008b58    00000010     board.obj (.const:PowerCC26XX_config)
                  00008b68    00000010     board.obj (.const:TRNGCC26XX_config)
                  00008b78    0000000c     devinfoservice.obj (.const:devInfoCBs)
                  00008b84    0000000c     simple_gatt_profile.obj (.const:simpleProfileCBs)
                  00008b90    0000000c     ble_user_config.obj (.const:trngDriverTable)
                  00008b9c    0000000c     app_ble_pem3.oem3 (.const:xdc_runtime_Startup_firstFxns__A)
                  00008ba8    00000008     devinfoservice.obj (.const:devInfoService$20)
                  00008bb0    00000008     simple_gatt_profile.obj (.const:simpleProfileService$24)
                  00008bb8    00000006     ble_user_config.obj (.const:txPwrTbl)
                  00008bbe    00000005     simple_peripheral.obj (.const:.string:$P$T0$1$28)
                  00008bc3    00000001     --HOLE-- [fill = 0]
                  00008bc4    00000004     board.obj (.const:TRNGCC26XXHWAttrs)
                  00008bc8    00000004     icall_cc2650.obj (.const:events$1$16)
                  00008bcc    00000004     app_ble_pem3.oem3 (.const:ti_sysbios_knl_Clock_tickPeriod__C)
                  00008bd0    00000004     app_ble_pem3.oem3 (.const:ti_sysbios_knl_Clock_triggerClock__C)
                  00008bd4    00000004     app_ble_pem3.oem3 (.const:ti_sysbios_knl_Idle_funcList__A)
                  00008bd8    00000004     app_ble_pem3.oem3 (.const:xdc_runtime_SysCallback_putchFxn__C)
                  00008bdc    00000004     app_ble_pem3.oem3 (.const:xdc_runtime_SysCallback_readyFxn__C)
                  00008be0    00000004     app_ble_pem3.oem3 (.const:xdc_runtime_System_extendFxn__C)
                  00008be4    00000004     app_ble_pem3.oem3 (.const:xdc_runtime_Text_visitRopeFxn__C)
                  00008be8    00000002     devinfoservice.obj (.const:.string:devInfo11073CertUUID)
                  00008bea    00000002     devinfoservice.obj (.const:.string:devInfoFirmwareRevUUID)
                  00008bec    00000002     devinfoservice.obj (.const:.string:devInfoHardwareRevUUID)
                  00008bee    00000002     devinfoservice.obj (.const:.string:devInfoMfrNameUUID)
                  00008bf0    00000002     devinfoservice.obj (.const:.string:devInfoModelNumberUUID)
                  00008bf2    00000002     devinfoservice.obj (.const:.string:devInfoPnpIdUUID)
                  00008bf4    00000002     devinfoservice.obj (.const:.string:devInfoSerialNumberUUID)
                  00008bf6    00000002     devinfoservice.obj (.const:.string:devInfoServUUID)
                  00008bf8    00000002     devinfoservice.obj (.const:.string:devInfoSoftwareRevUUID)
                  00008bfa    00000002     devinfoservice.obj (.const:.string:devInfoSystemIdUUID)
                  00008bfc    00000002     simple_gatt_profile.obj (.const:.string:simpleProfileServUUID)
                  00008bfe    00000002     simple_gatt_profile.obj (.const:.string:simpleProfilechar1UUID)
                  00008c00    00000002     simple_gatt_profile.obj (.const:.string:simpleProfilechar2UUID)
                  00008c02    00000002     simple_gatt_profile.obj (.const:.string:simpleProfilechar3UUID)
                  00008c04    00000002     simple_gatt_profile.obj (.const:.string:simpleProfilechar4UUID)
                  00008c06    00000002     simple_gatt_profile.obj (.const:.string:simpleProfilechar5UUID)
                  00008c08    00000002     app_ble_pem3.oem3 (.const:xdc_runtime_Text_registryModsLastId__C)
                  00008c0a    00000002     app_ble_pem3.oem3 (.const:xdc_runtime_Text_unnamedModsLastId__C)

.cinit     0    00008c10    000004c0     
                  00008c10    00000388     (.cinit..data.load) [load image, compression = lzss]
                  00008f98    0000002a     (.cinit..data:ti_sysbios_family_arm_m3_Hwi_Module__state__V.load) [load image, compression = lzss]
                  00008fc2    00000021     (.cinit..data:ti_sysbios_knl_Task_Module__state__V.load) [load image, compression = lzss]
                  00008fe3    0000001e     (.cinit..data:ti_sysbios_BIOS_Module__state__V.load) [load image, compression = lzss]
                  00009001    0000001d     (.cinit..data:ti_sysbios_knl_Clock_Module__state__V.load) [load image, compression = lzss]
                  0000901e    00000010     (.cinit..data:ti_sysbios_knl_Swi_Module__state__V.load) [load image, compression = lzss]
                  0000902e    00000002     --HOLE-- [fill = 0]
                  00009030    0000000c     (__TI_handler_table)
                  0000903c    0000000b     (.cinit..data:ti_sysbios_family_arm_cc26xx_Timer_Module__state__V.load) [load image, compression = lzss]
                  00009047    00000001     --HOLE-- [fill = 0]
                  00009048    00000008     (.cinit..bss.load) [load image, compression = zero_init]
                  00009050    00000008     (.cinit..data:xdc_runtime_Memory_Module__state__V.load) [load image, compression = lzss]
                  00009058    00000007     (.cinit..data:ti_sysbios_family_arm_cc26xx_TimestampProvider_Module__state__V.load) [load image, compression = lzss]
                  0000905f    00000007     (.cinit..data:xdc_runtime_Startup_Module__state__V.load) [load image, compression = lzss]
                  00009066    00000007     (.cinit..data:xdc_runtime_System_Module__state__V.load) [load image, compression = lzss]
                  0000906d    00000003     --HOLE-- [fill = 0]
                  00009070    00000060     (__TI_cinit_table)

.init_array 
*          0    00000000    00000000     UNINITIALIZED

.ccfg      0    0001ffa8    00000058     
                  0001ffa8    00000058     ccfg_app_ble.obj (.ccfg:retain)

.vecs      0    20000000    000000c8     NOLOAD SECTION
                  20000000    000000c8     app_ble_pem3.oem3 (.vecs)

.data:ti_sysbios_knl_Task_Module__state__V 
*          0    20000100    00000044     UNINITIALIZED
                  20000100    00000044     app_ble_pem3.oem3 (.data:ti_sysbios_knl_Task_Module__state__V)

.data:ti_sysbios_family_arm_m3_Hwi_Module__state__V 
*          0    20000144    00000034     UNINITIALIZED
                  20000144    00000034     app_ble_pem3.oem3 (.data:ti_sysbios_family_arm_m3_Hwi_Module__state__V)

.data:ti_sysbios_knl_Clock_Module__state__V 
*          0    20000178    0000002c     UNINITIALIZED
                  20000178    0000002c     app_ble_pem3.oem3 (.data:ti_sysbios_knl_Clock_Module__state__V)

.data:ti_sysbios_BIOS_Module__state__V 
*          0    200001a4    00000024     UNINITIALIZED
                  200001a4    00000024     app_ble_pem3.oem3 (.data:ti_sysbios_BIOS_Module__state__V)

.data:ti_sysbios_knl_Swi_Module__state__V 
*          0    200001c8    0000001c     UNINITIALIZED
                  200001c8    0000001c     app_ble_pem3.oem3 (.data:ti_sysbios_knl_Swi_Module__state__V)

.data:ti_sysbios_family_arm_cc26xx_Timer_Module__state__V 
*          0    200001e4    00000008     UNINITIALIZED
                  200001e4    00000008     app_ble_pem3.oem3 (.data:ti_sysbios_family_arm_cc26xx_Timer_Module__state__V)

.data:ti_sysbios_family_arm_cc26xx_TimestampProvider_Module__state__V 
*          0    200001ec    00000004     UNINITIALIZED
                  200001ec    00000004     app_ble_pem3.oem3 (.data:ti_sysbios_family_arm_cc26xx_TimestampProvider_Module__state__V)

.data:xdc_runtime_Startup_Module__state__V 
*          0    200001f0    00000008     UNINITIALIZED
                  200001f0    00000008     app_ble_pem3.oem3 (.data:xdc_runtime_Startup_Module__state__V)

.data:xdc_runtime_System_Module__state__V 
*          0    200001f8    00000008     UNINITIALIZED
                  200001f8    00000008     app_ble_pem3.oem3 (.data:xdc_runtime_System_Module__state__V)

.data:xdc_runtime_Memory_Module__state__V 
*          0    20000200    00000004     UNINITIALIZED
                  20000200    00000004     app_ble_pem3.oem3 (.data:xdc_runtime_Memory_Module__state__V)

.data      0    20000208    0000119c     UNINITIALIZED
                  20000208    00000380     peripheral.obj (.data:$O17$$)
                  20000588    00000368     simple_peripheral.obj (.data:$O19$$)
                  200008f0    00000228     RFCC26XX_singleMode.obj (.data:$O6$$)
                  20000b18    000001d4     devinfoservice.obj (.data:$O15$$)
                  20000cec    00000124     simple_gatt_profile.obj (.data:$O18$$)
                  20000e10    00000110     drivers_cc26xxware.aem3 : PowerCC26XX.oem3 (.data:PowerCC26XX_module)
                  20000f20    00000094     icall.obj (.data:$O9$$)
                  20000fb4    00000068     board_led.obj (.data:$O2$$)
                  2000101c    00000058     ble_user_config.obj (.data:rfRegTbl)
                  20001074    0000004c     app_ble_pem3.oem3 (.data:ti_sysbios_knl_Task_Object__table__V)
                  200010c0    00000048     board_key.obj (.data:$O1$$)
                  20001108    00000048     app_ble_pem3.oem3 (.data:ti_sysbios_family_arm_cc26xx_Timer_Object__table__V)
                  20001150    00000038     app_ble_pem3.oem3 (.data:ti_sysbios_gates_GateMutex_Object__table__V)
                  20001188    00000030     app_ble_pem3.oem3 (.data:ti_sysbios_knl_Swi_Module_State_0_readyQ__A)
                  200011b8    00000030     app_ble_pem3.oem3 (.data:ti_sysbios_knl_Swi_Object__table__V)
                  200011e8    00000030     app_ble_pem3.oem3 (.data:ti_sysbios_knl_Task_Module_State_0_readyQ__A)
                  20001218    00000030     main.obj (.data:user0Cfg)
                  20001248    00000020     app_ble_pem3.oem3 (.data:ti_sysbios_knl_Clock_Object__table__V)
                  20001268    00000018     app_ble_pem3.oem3 (.data:ti_sysbios_family_arm_m3_Hwi_Object__table__V)
                  20001280    00000018     app_ble_pem3.oem3 (.data:ti_sysbios_heaps_HeapMem_Object__table__V)
                  20001298    00000011     simple_gatt_profile.obj (.data:simpleProfileChar1UserDesp$24)
                  200012a9    00000011     simple_gatt_profile.obj (.data:simpleProfileChar2UserDesp$24)
                  200012ba    00000011     simple_gatt_profile.obj (.data:simpleProfileChar3UserDesp$24)
                  200012cb    00000011     simple_gatt_profile.obj (.data:simpleProfileChar4UserDesp$24)
                  200012dc    00000011     simple_gatt_profile.obj (.data:simpleProfileChar5UserDesp$24)
                  200012ed    00000001     TRNGCC26XX.obj (.data)
                  200012ee    00000002     app_ble_pem3.oem3 (.data:ti_sysbios_family_arm_m3_Hwi_Module_State_0_excActive__A)
                  200012f0    0000000c     rtsv7M3_T_le_eabi.lib : exit.obj (.data:$O1$$)
                  200012fc    0000000c     icall_api.obj (.data:$O12$$)
                  20001308    00000009     devinfoservice.obj (.data)
                  20001311    00000003     --HOLE--
                  20001314    00000008     icall_cc2650.obj (.data:$O11$$)
                  2000131c    00000008     rtsv7M3_T_le_eabi.lib : _lock.obj (.data:$O20$$)
                  20001324    00000008     app_ble_pem3.oem3 (.data:ti_sysbios_family_arm_m3_Hwi_Module__root__V)
                  2000132c    00000008     app_ble_pem3.oem3 (.data:ti_sysbios_gates_GateHwi_Module__root__V)
                  20001334    00000008     app_ble_pem3.oem3 (.data:ti_sysbios_gates_GateMutex_Module__root__V)
                  2000133c    00000008     app_ble_pem3.oem3 (.data:ti_sysbios_hal_Hwi_Module__root__V)
                  20001344    00000008     app_ble_pem3.oem3 (.data:ti_sysbios_heaps_HeapMem_Module__root__V)
                  2000134c    00000008     app_ble_pem3.oem3 (.data:ti_sysbios_knl_Clock_Module__root__V)
                  20001354    00000008     app_ble_pem3.oem3 (.data:ti_sysbios_knl_Mailbox_Module__root__V)
                  2000135c    00000008     app_ble_pem3.oem3 (.data:ti_sysbios_knl_Queue_Module__root__V)
                  20001364    00000008     app_ble_pem3.oem3 (.data:ti_sysbios_knl_Semaphore_Module__root__V)
                  2000136c    00000008     app_ble_pem3.oem3 (.data:ti_sysbios_knl_Swi_Module__root__V)
                  20001374    00000008     app_ble_pem3.oem3 (.data:ti_sysbios_knl_Task_Module__root__V)
                  2000137c    00000008     app_ble_pem3.oem3 (.data:xdc_runtime_Registry_Module__state__V)
                  20001384    00000005     simple_gatt_profile.obj (.data)
                  20001389    00000003     --HOLE--
                  2000138c    00000004     UART.obj (.data)
                  20001390    00000004     ble_user_config.obj (.data)
                  20001394    00000004     rtsv7M3_T_le_eabi.lib : stkdepth_vars.obj (.data)
                  20001398    00000004     app_ble_pem3.oem3 (.data:ti_sysbios_family_arm_m3_Hwi_Module_State_0_excContext__A)
                  2000139c    00000004     app_ble_pem3.oem3 (.data:ti_sysbios_family_arm_m3_Hwi_Module_State_0_excStack__A)
                  200013a0    00000004     app_ble_pem3.oem3 (.data:ti_sysbios_knl_Task_Module_State_0_idleTask__A)

.bss       0    200013a8    00000c5f     UNINITIALIZED
                  200013a8    00000680     (.common:ti_sysbios_heaps_HeapMem_Instance_State_0_buf__A)
                  20001a28    00000200     app_ble_pem3.oem3 (.bss:taskStackSection)
                  20001c28    0000012c     (.common:uartCC26XXObjects)
                  20001d54    00000110     PINCC26XX.obj (.bss:$O5$$)
                  20001e64    000000c8     (.common:ti_sysbios_family_arm_m3_Hwi_dispatchTable)
                  20001f2c    00000080     board.obj (.bss:uartStringBuf$25)
                  20001fac    00000020     (.common:displayUartObject)
                  20001fcc    00000014     driverlib.lib : osc.obj (.bss:oscHfGlobals$47)
                  20001fe0    00000010     util.obj (.bss:str$1$2)
                  20001ff0    00000008     RFCC26XX_singleMode.obj (.bss)
                  20001ff8    00000008     driverlib.lib : sys_ctrl.obj (.bss:powerQualGlobals$51)
                  20002000    00000004     (.common:trngCC26XXObjects)
                  20002004    00000002     UARTCC26XX.obj (.bss)
                  20002006    00000001     (.common:driverlib_release_0_47020)

.vtable    0    20002007    00000000     UNINITIALIZED

.vtable_ram 
*          0    20002007    00000000     UNINITIALIZED

vtable_ram 
*          0    20002007    00000000     UNINITIALIZED

.sysmem    0    20002007    00000000     UNINITIALIZED

.nonretenvar 
*          0    20002007    00000000     UNINITIALIZED

.stack     0    20003f20    00000400     UNINITIALIZED
                  20003f20    00000400     --HOLE--

.bootVecs 
*          0    00000000    00000008     DSECT
                  00000000    00000008     boot.aem3 : boot.oem3 (.bootVecs)

xdc.meta   0    00000000    000000f8     COPY SECTION
                  00000000    000000f8     app_ble_pem3.oem3 (xdc.meta)

xdc.noload 
*          0    00000000    00000000     COPY SECTION

MODULE SUMMARY

       Module                                   code    ro data   rw data
       ------                                   ----    -------   -------
    .\Application\
       board_led.obj                            188     0         104    
       util.obj                                 256     17        16     
       board_key.obj                            64      0         72     
    +--+----------------------------------------+-------+---------+---------+
       Total:                                   508     17        192    
                                                                         
    .\Drivers\Display\
       DisplayUart.obj                          258     28        0      
       Display.obj                              98      1         0      
    +--+----------------------------------------+-------+---------+---------+
       Total:                                   356     29        0      
                                                                         
    .\Drivers\PIN\
       PINCC26XX.obj                            1260    0         272    
    +--+----------------------------------------+-------+---------+---------+
       Total:                                   1260    0         272    
                                                                         
    .\Drivers\RF\
       RFCC26XX_singleMode.obj                  4722    20        560    
    +--+----------------------------------------+-------+---------+---------+
       Total:                                   4722    20        560    
                                                                         
    .\Drivers\TRNG\
       TRNGCC26XX.obj                           256     0         1      
    +--+----------------------------------------+-------+---------+---------+
       Total:                                   256     0         1      
                                                                         
    .\Drivers\UART\
       UARTCC26XX.obj                           2690    104       2      
       UART.obj                                 0       36        4      
    +--+----------------------------------------+-------+---------+---------+
       Total:                                   2690    140       6      
                                                                         
    .\ICallBLE\
       icall_api.obj                            1936    0         12     
       ble_user_config.obj                      24      133       92     
    +--+----------------------------------------+-------+---------+---------+
       Total:                                   1960    133       104    
                                                                         
    .\ICall\
       icall.obj                                2362    204       148    
       icall_cc2650.obj                         466     4         8      
    +--+----------------------------------------+-------+---------+---------+
       Total:                                   2828    208       156    
                                                                         
    .\PROFILES\
       peripheral.obj                           2644    0         896    
       simple_gatt_profile.obj                  572     32        382    
       devinfoservice.obj                       176     40        477    
       gattservapp_util.obj                     172     0         0      
       gatt_uuid.obj                            0       44        0      
    +--+----------------------------------------+-------+---------+---------+
       Total:                                   3564    116       1755   
                                                                         
    .\Startup\
       board.obj                                0       180       128    
       ccfg_app_ble.obj                         0       88        0      
    +--+----------------------------------------+-------+---------+---------+
       Total:                                   0       268       128    
                                                                         
    .\src\
       simple_peripheral.obj                    2580    5         872    
       main.obj                                 536     0         48     
    +--+----------------------------------------+-------+---------+---------+
       Total:                                   3116    5         920    
                                                                         
    C:\Users\ziyix\AppData\Local\Temp\
       {42EB9A86-5087-46A5-8369-18ED5C77E6E3}   0       0         337    
    +--+----------------------------------------+-------+---------+---------+
       Total:                                   0       0         337    
                                                                         
    E:\git\EVRS_TX_PROTOTYPE\simple_peripheral_cc2650lp_app\FlashROM\configPkg\package\cfg\
       app_ble_pem3.oem3                        672     1479      3374   
    +--+----------------------------------------+-------+---------+---------+
       Total:                                   672     1479      3374   
                                                                         
    C:/ti/tirtos_cc13xx_cc26xx_2_21_01_08/products/cc26xxware_2_24_03_17272/driverlib/bin/ccs/driverlib.lib
       setup.obj                                1432    0         0      
       sys_ctrl.obj                             716     0         8      
       osc.obj                                  468     0         20     
       ddi.obj                                  188     0         0      
       chipinfo.obj                             96      0         0      
       rfc.obj                                  64      0         0      
       setup_rom.obj                            48      0         0      
       trng.obj                                 48      0         0      
       aon_rtc.obj                              44      0         0      
       adi.obj                                  40      0         0      
       aon_batmon.obj                           40      0         0      
       cpu.obj                                  24      0         0      
       vims.obj                                 14      0         0      
    +--+----------------------------------------+-------+---------+---------+
       Total:                                   3222    0         28     
                                                                         
    C:/ti/tirtos_cc13xx_cc26xx_2_21_01_08/products/tidrivers_cc13xx_cc26xx_2_21_01_01/packages/ti/drivers/lib/drivers_cc26xxware.aem3
       PowerCC26XX.oem3                         2168    76        272    
       PowerCC26XX_calibrateRCOSC.oem3          1400    0         0      
       RingBuf.oem3                             152     0         0      
       List.oem3                                82      0         0      
    +--+----------------------------------------+-------+---------+---------+
       Total:                                   3802    76        272    
                                                                         
    C:/ti/tirtos_cc13xx_cc26xx_2_21_01_08/products/tidrivers_cc13xx_cc26xx_2_21_01_01/packages/ti/drivers/lib/power_cc26xx_tirtos.aem3
       PowerCC26XX_tirtos.oem3                  212     0         0      
    +--+----------------------------------------+-------+---------+---------+
       Total:                                   212     0         0      
                                                                         
    C:/ti/tirtos_cc13xx_cc26xx_2_21_01_08/products/tidrivers_cc13xx_cc26xx_2_21_01_01/packages/ti/drivers/ports/lib/tirtosport.aem3
       HwiP_tirtos.oem3                         4       0         0      
    +--+----------------------------------------+-------+---------+---------+
       Total:                                   4       0         0      
                                                                         
    C:\ti\ble_sdk_2_02_02_25\examples\cc2650lp\simple_peripheral\ccs\config\src\sysbios\rom_sysbios.aem3
       rom_sysbios.obj                          2311    0         0      
       rom_sysbios_config.obj                   38      0         0      
    +--+----------------------------------------+-------+---------+---------+
       Total:                                   2349    0         0      
                                                                         
    C:\ti\ccsv8\tools\compiler\ti-cgt-arm_16.9.4.LTS\lib\rtsv7M3_T_le_eabi.lib
       ull_div_t2.obj                           500     0         0      
       memcpy_t2.obj                            156     0         0      
       memset_t2.obj                            122     0         0      
       copy_decompress_lzss.obj                 104     0         0      
       exit.obj                                 84      0         12     
       cpy_tbl.obj                              76      0         0      
       u_divt2.obj                              64      0         0      
       _lock.obj                                20      0         8      
       args_main.obj                            24      0         0      
       ll_mul_t2.obj                            24      0         0      
       strlen.obj                               20      0         0      
       copy_decompress_none.obj                 14      0         0      
       copy_zero_init.obj                       12      0         0      
       stkdepth_vars.obj                        0       0         4      
       i_div0.obj                               2       0         0      
    +--+----------------------------------------+-------+---------+---------+
       Total:                                   1222    0         24     
                                                                         
    C:\ti\tirtos_cc13xx_cc26xx_2_21_01_08\products\bios_6_46_01_38\packages\ti\targets\arm\rtsarm\lib\auto_init.aem3
       auto_init.oem3                           160     0         0      
    +--+----------------------------------------+-------+---------+---------+
       Total:                                   160     0         0      
                                                                         
    C:\ti\tirtos_cc13xx_cc26xx_2_21_01_08\products\bios_6_46_01_38\packages\ti\targets\arm\rtsarm\lib\boot.aem3
       boot.oem3                                68      0         0      
    +--+----------------------------------------+-------+---------+---------+
       Total:                                   68      0         0      
                                                                         
       Stack:                                   0       0         1024   
       Linker Generated:                        464     1210      0      
    +--+----------------------------------------+-------+---------+---------+
       Grand Total:                             33435   3701      9153   


LINKER GENERATED COPY TABLES

__TI_cinit_table @ 00009070 records: 12, size/record: 8, table size: 96
	.data: load addr=00008c10, load size=00000388 bytes, run addr=20000208, run size=0000119c bytes, compression=lzss
	.data:ti_sysbios_family_arm_m3_Hwi_Module__state__V: load addr=00008f98, load size=0000002a bytes, run addr=20000144, run size=00000034 bytes, compression=lzss
	.data:ti_sysbios_knl_Task_Module__state__V: load addr=00008fc2, load size=00000021 bytes, run addr=20000100, run size=00000044 bytes, compression=lzss
	.data:ti_sysbios_BIOS_Module__state__V: load addr=00008fe3, load size=0000001e bytes, run addr=200001a4, run size=00000024 bytes, compression=lzss
	.data:ti_sysbios_knl_Clock_Module__state__V: load addr=00009001, load size=0000001d bytes, run addr=20000178, run size=0000002c bytes, compression=lzss
	.data:ti_sysbios_knl_Swi_Module__state__V: load addr=0000901e, load size=00000010 bytes, run addr=200001c8, run size=0000001c bytes, compression=lzss
	.data:ti_sysbios_family_arm_cc26xx_Timer_Module__state__V: load addr=0000903c, load size=0000000b bytes, run addr=200001e4, run size=00000008 bytes, compression=lzss
	.bss: load addr=00009048, load size=00000008 bytes, run addr=200013a8, run size=00000c5f bytes, compression=zero_init
	.data:xdc_runtime_Memory_Module__state__V: load addr=00009050, load size=00000008 bytes, run addr=20000200, run size=00000004 bytes, compression=lzss
	.data:ti_sysbios_family_arm_cc26xx_TimestampProvider_Module__state__V: load addr=00009058, load size=00000007 bytes, run addr=200001ec, run size=00000004 bytes, compression=lzss
	.data:xdc_runtime_Startup_Module__state__V: load addr=0000905f, load size=00000007 bytes, run addr=200001f0, run size=00000008 bytes, compression=lzss
	.data:xdc_runtime_System_Module__state__V: load addr=00009066, load size=00000007 bytes, run addr=200001f8, run size=00000008 bytes, compression=lzss


LINKER GENERATED HANDLER TABLE

__TI_handler_table @ 00009030 records: 3, size/record: 4, table size: 12
	index: 0, handler: __TI_decompress_lzss
	index: 1, handler: __TI_decompress_none
	index: 2, handler: __TI_zero_init


FAR CALL TRAMPOLINES

callee name               trampoline name
   callee addr  tramp addr   call addr  call info
--------------  -----------  ---------  ----------------
xdc_runtime_Core_assignParams__I  $Tramp$TT$L$PI$$xdc_runtime_Core_assignParams__I
   1001c5f1     000085f4     000084bc   rom_sysbios.aem3 : rom_sysbios_config.obj (.text:ti_sysbios_hal_Hwi_Params__init__S)
ti_sysbios_hal_Hwi_enableInterrupt__E  $Tramp$TT$L$PI$$ti_sysbios_hal_Hwi_enableInterrupt__E
   1001c285     000085fc     00008438   icall.obj (.text:ICall_primEnableInt$15)
ti_sysbios_hal_Hwi_disableInterrupt__E  $Tramp$TT$L$PI$$ti_sysbios_hal_Hwi_disableInterrupt__E
   1001c281     00008604     0000842c   icall.obj (.text:ICall_primDisableInt$15)
ti_sysbios_knl_Task_enable__E  $Tramp$TT$L$PI$$ti_sysbios_knl_Task_enable__E
   1001c243     0000860c     00008360   icall.obj (.text:ICall_primEnableMInt$15)
ti_sysbios_family_arm_m3_Hwi_enableFxn__E  $Tramp$TT$L$PI$$ti_sysbios_family_arm_m3_Hwi_enableFxn__E
   1001c155     00008614     0000835c   icall.obj (.text:ICall_primEnableMInt$15)
xdc_runtime_Startup_startMods__I  $Tramp$TT$L$PI$$xdc_runtime_Startup_startMods__I
   1001c30d     0000861c     00008286   app_ble_pem3.oem3 (.text:xdc_runtime_Startup_exec__I)
ti_sysbios_knl_Clock_logTick__E  $Tramp$TT$L$PI$$ti_sysbios_knl_Clock_logTick__E
   1001be67     00008624     00008246   app_ble_pem3.oem3 (.text:ti_sysbios_knl_Clock_doTick__I)
ti_sysbios_BIOS_RtsGateProxy_leave__E  $Tramp$TT$L$PI$$ti_sysbios_BIOS_RtsGateProxy_leave__E
   1001c24d     0000862c     000080fe   app_ble_pem3.oem3 (.text:ti_sysbios_BIOS_rtsUnlock__I)
ti_sysbios_BIOS_RtsGateProxy_enter__E  $Tramp$TT$L$PI$$ti_sysbios_BIOS_RtsGateProxy_enter__E
   1001c249     00008634     00007cba   app_ble_pem3.oem3 (.text:ti_sysbios_BIOS_rtsLock__I)
ti_sysbios_knl_Task_startup__E  $Tramp$TT$L$PI$$ti_sysbios_knl_Task_startup__E
   1001c309     0000863c     00007680   app_ble_pem3.oem3 (.text:ti_sysbios_BIOS_startFunc__I)
ti_sysbios_knl_Swi_startup__E  $Tramp$TT$L$PI$$ti_sysbios_knl_Swi_startup__E
   1001c23d     00008644     0000767c   app_ble_pem3.oem3 (.text:ti_sysbios_BIOS_startFunc__I)
ti_sysbios_hal_Hwi_startup__E  $Tramp$TT$L$PI$$ti_sysbios_hal_Hwi_startup__E
   1001c28d     0000864c     00007678   app_ble_pem3.oem3 (.text:ti_sysbios_BIOS_startFunc__I)
ti_sysbios_family_arm_cc26xx_Timer_startup__E  $Tramp$TT$L$PI$$ti_sysbios_family_arm_cc26xx_Timer_startup__E
   1001b795     00008654     00007674   app_ble_pem3.oem3 (.text:ti_sysbios_BIOS_startFunc__I)
xdc_runtime_System_atexit__E  $Tramp$TT$L$PI$$xdc_runtime_System_atexit__E
   1001c681     0000865c     0000766c   app_ble_pem3.oem3 (.text:ti_sysbios_BIOS_startFunc__I)
ti_sysbios_BIOS_setThreadType__E  $Tramp$TT$L$PI$$ti_sysbios_BIOS_setThreadType__E
   1001c045     00008664     00007638   app_ble_pem3.oem3 (.text:ti_sysbios_BIOS_atExitFunc__I)
                             00008184   app_ble_pem3.oem3 (.text:ti_sysbios_BIOS_exitFunc__I)
ti_sysbios_hal_Hwi_create  $Tramp$TT$L$PI$$ti_sysbios_hal_Hwi_create
   1001ab79     0000866c     00007098   icall.obj (.text:ICall_primRegisterISR$15)
                             000070cc   icall.obj (.text:ICall_primRegisterISR_Ext$15)
ti_sysbios_knl_Task_construct  $Tramp$TT$L$PI$$ti_sysbios_knl_Task_construct
   1001b125     00008674     000069f6   peripheral.obj (.text:GAPRole_createTask)
                             00006cdc   simple_peripheral.obj (.text:SimpleBLEPeripheral_createTask)
xdc_runtime_System_exit__E  $Tramp$TT$L$PI$$xdc_runtime_System_exit__E
   1001c7d1     0000867c     000068a4   boot.aem3 : boot.oem3 (.text)
                             0000818a   app_ble_pem3.oem3 (.text:ti_sysbios_BIOS_exitFunc__I)
ti_sysbios_knl_Semaphore_create  $Tramp$TT$L$PI$$ti_sysbios_knl_Semaphore_create
   1001b5ad     00008684     000064a0   icall.obj (.text:ICall_newTask$15)
ti_sysbios_knl_Task_create  $Tramp$TT$L$PI$$ti_sysbios_knl_Task_create
   1001ae19     0000868c     000058de   icall.obj (.text:ICall_createRemoteTasks)
                             0000696e   icall.obj (.text:ICall_primCreateTask$15)
ti_sysbios_knl_Task_Params__init__S  $Tramp$TT$L$PI$$ti_sysbios_knl_Task_Params__init__S
   1001c1d9     00008694     000058c0   icall.obj (.text:ICall_createRemoteTasks)
                             00006958   icall.obj (.text:ICall_primCreateTask$15)
                             000069d6   peripheral.obj (.text:GAPRole_createTask)
                             00006cbe   simple_peripheral.obj (.text:SimpleBLEPeripheral_createTask)
ti_sysbios_knl_Clock_destruct  $Tramp$TT$L$PI$$ti_sysbios_knl_Clock_destruct
   1001c2b9     0000869c     000056c6   UARTCC26XX.obj (.text:UARTCC26XX_close)
ti_sysbios_knl_Semaphore_destruct  $Tramp$TT$L$PI$$ti_sysbios_knl_Semaphore_destruct
   1001c2e1     000086a4     000056b2   UARTCC26XX.obj (.text:UARTCC26XX_close)
                             000056be   UARTCC26XX.obj (.text:UARTCC26XX_close)
                             00007f20   DisplayUart.obj (.text:DisplayUart_close)
ti_sysbios_knl_Swi_destruct  $Tramp$TT$L$PI$$ti_sysbios_knl_Swi_destruct
   1001c2e9     000086ac     000056a6   UARTCC26XX.obj (.text:UARTCC26XX_close)
ti_sysbios_family_arm_m3_Hwi_destruct  $Tramp$TT$L$PI$$ti_sysbios_family_arm_m3_Hwi_destruct
   1001c261     000086b4     0000569e   UARTCC26XX.obj (.text:UARTCC26XX_close)
ti_sysbios_knl_Queue_put__E  $Tramp$TT$L$PI$$ti_sysbios_knl_Queue_put__E
   1001bf2d     000086bc     000054f4   simple_peripheral.obj (.text:SimpleBLEPeripheral_enqueueMsg$28)
ti_sysbios_knl_Clock_create  $Tramp$TT$L$PI$$ti_sysbios_knl_Clock_create
   1001b3ed     000086c4     00004d76   icall.obj (.text:ICall_primSetTimer$15)
ti_sysbios_knl_Clock_scheduleNextTick__E  $Tramp$TT$L$PI$$ti_sysbios_knl_Clock_scheduleNextTick__E
   1001bebd     000086cc     00004d2a   rom_sysbios.aem3 : rom_sysbios.obj (.text:ti_sysbios_knl_Clock_workFuncDynamic__E)
ti_sysbios_knl_Clock_walkQueueDynamic__E  $Tramp$TT$L$PI$$ti_sysbios_knl_Clock_walkQueueDynamic__E
   1001a80d     000086d4     00004cf2   rom_sysbios.aem3 : rom_sysbios.obj (.text:ti_sysbios_knl_Clock_workFuncDynamic__E)
                             00004d0e                    : rom_sysbios.obj (.text:ti_sysbios_knl_Clock_workFuncDynamic__E)
ti_sysbios_knl_Clock_TimerProxy_getCurrentTick__E  $Tramp$TT$L$PI$$ti_sysbios_knl_Clock_TimerProxy_getCurrentTick__E
   1001c095     000086dc     00004cc0   rom_sysbios.aem3 : rom_sysbios.obj (.text:ti_sysbios_knl_Clock_workFuncDynamic__E)
                             0000793e                    : rom_sysbios.obj (.text:ti_sysbios_knl_Clock_getTicksUntilInterrupt__E)
ti_sysbios_BIOS_getCpuFreq__E  $Tramp$TT$L$PI$$ti_sysbios_BIOS_getCpuFreq__E
   1001bff9     000086e4     00004740   UARTCC26XX.obj (.text:UARTCC26XX_initHw$13)
ti_sysbios_BIOS_start__E  $Tramp$TT$L$PI$$ti_sysbios_BIOS_start__E
   1001c055     000086ec     0000400e   main.obj (.text:main)
ti_sysbios_family_arm_m3_Hwi_enableInterrupt__E  $Tramp$TT$L$PI$$ti_sysbios_family_arm_m3_Hwi_enableInterrupt__E
   1001b2dd     000086f4     00003cf2   RFCC26XX_singleMode.obj (.text:fsmPowerUpState$8)
ti_sysbios_knl_Semaphore_post__E  $Tramp$TT$L$PI$$ti_sysbios_knl_Semaphore_post__E
   1001ac41     000086fc     00003b54   icall.obj (.text:ICall_primWaitMatch$15)
                             00004674   RFCC26XX_singleMode.obj (.text:fsmPowerDownState$8)
                             00004c02   PINCC26XX.obj (.text:PIN_open)
                             00005500   simple_peripheral.obj (.text:SimpleBLEPeripheral_enqueueMsg$28)
                             000055ea   icall.obj (.text:ICall_primSend$15)
                             00005d5e   DisplayUart.obj (.text:DisplayUart_put5)
                             000065f0   RFCC26XX_singleMode.obj (.text:syncCb$8)
                             0000809e   peripheral.obj (.text:gapRole_setEvent$23)
                             00008200   simple_peripheral.obj (.text:SimpleBLEPeripheral_clockHandler$28)
                             00008450   icall.obj (.text:ICall_primSignal$15)
                             0000853a   UARTCC26XX.obj (.text:readSemCallback$13)
                             00008542   UARTCC26XX.obj (.text:writeSemCallback$13)
ti_sysbios_knl_Clock_getTicks__E  $Tramp$TT$L$PI$$ti_sysbios_knl_Clock_getTicks__E
   1001b6d9     00008704     00003ab2   icall.obj (.text:ICall_primWaitMatch$15)
                             00003b20   icall.obj (.text:ICall_primWaitMatch$15)
                             0000837a   icall.obj (.text:ICall_primGetTicks$15)
ti_sysbios_knl_Task_self__E  $Tramp$TT$L$PI$$ti_sysbios_knl_Task_self__E
   1001c1e5     0000870c     00003a68   icall.obj (.text:ICall_primWaitMatch$15)
                             00005b8c   icall.obj (.text:ICall_primEnroll$15)
                             00005d7c   icall.obj (.text:ICall_primThreadServes$15)
                             000060f8   icall.obj (.text:ICall_primFetchMsg$15)
                             0000629c   icall.obj (.text:ICall_primWait$15)
                             00006340   icall.obj (.text:ICall_primRegisterApp$15)
                             000064cc   icall.obj (.text:ICall_primGetEntityId$15)
ti_sysbios_knl_Swi_post__E  $Tramp$TT$L$PI$$ti_sysbios_knl_Swi_post__E
   1001b321     00008714     00003834   UARTCC26XX.obj (.text:UARTCC26XX_read)
                             000039c0   UARTCC26XX.obj (.text:UARTCC26XX_hwiIntFxn)
                             0000811c   rom_sysbios.aem3 : rom_sysbios.obj (.text:ti_sysbios_knl_Swi_or__E)
                             0000824e   app_ble_pem3.oem3 (.text:ti_sysbios_knl_Clock_doTick__I)
ti_sysbios_knl_Semaphore_pend__E  $Tramp$TT$L$PI$$ti_sysbios_knl_Semaphore_pend__E
   1001a0cd     0000871c     000037f2   UARTCC26XX.obj (.text:UARTCC26XX_read)
                             00003aca   icall.obj (.text:ICall_primWaitMatch$15)
                             00003bda   UARTCC26XX.obj (.text:UARTCC26XX_write)
                             00003c16   UARTCC26XX.obj (.text:UARTCC26XX_write)
                             000048c4   UARTCC26XX.obj (.text:writeTxFifoFlush$13)
                             00004b90   PINCC26XX.obj (.text:PIN_open)
                             00005300   RFCC26XX_singleMode.obj (.text:RF_pendCmd)
                             00005d14   DisplayUart.obj (.text:DisplayUart_put5)
                             000062dc   icall.obj (.text:ICall_primWait$15)
xdc_runtime_System_abortSpin__E  $Tramp$TT$L$PI$$xdc_runtime_System_abortSpin__E
   1001c899     00008724     0000305e   drivers_cc26xxware.aem3 : PowerCC26XX_calibrateRCOSC.oem3 (.text:PowerCC26XX_doCalibrate)
                             00005c0a                           : PowerCC26XX_calibrateRCOSC.oem3 (.text:PowerCC26XX_RCOSC_clockFunc)
ti_sysbios_knl_Clock_construct  $Tramp$TT$L$PI$$ti_sysbios_knl_Clock_construct
   1001b579     0000872c     00002f3e   UARTCC26XX.obj (.text:UARTCC26XX_open)
                             0000365a   drivers_cc26xxware.aem3 : PowerCC26XX.oem3 (.text:Power_init)
                             00003668                           : PowerCC26XX.oem3 (.text:Power_init)
                             00003676                           : PowerCC26XX.oem3 (.text:Power_init)
                             000040d8   RFCC26XX_singleMode.obj (.text:rf_init$8)
                             00004608   RFCC26XX_singleMode.obj (.text:RF_open)
                             0000595c   drivers_cc26xxware.aem3 : PowerCC26XX.oem3 (.text:PowerCC26XX_calibrate)
                             0000670c   util.obj (.text:Util_constructClock)
ti_sysbios_knl_Clock_Params__init__S  $Tramp$TT$L$PI$$ti_sysbios_knl_Clock_Params__init__S
   1001c185     00008734     00002f28   UARTCC26XX.obj (.text:UARTCC26XX_open)
                             00003642   drivers_cc26xxware.aem3 : PowerCC26XX.oem3 (.text:Power_init)
                             000045f8   RFCC26XX_singleMode.obj (.text:RF_open)
                             00004d62   icall.obj (.text:ICall_primSetTimer$15)
                             00005944   drivers_cc26xxware.aem3 : PowerCC26XX.oem3 (.text:PowerCC26XX_calibrate)
                             000066e6   util.obj (.text:Util_constructClock)
ti_sysbios_knl_Clock_start__E  $Tramp$TT$L$PI$$ti_sysbios_knl_Clock_start__E
   1001bfe3     0000873c     00002d64   RFCC26XX_singleMode.obj (.text:RF_postCmd)
                             000030dc   drivers_cc26xxware.aem3 : PowerCC26XX_calibrateRCOSC.oem3 (.text:PowerCC26XX_doCalibrate)
                             000036f4                           : PowerCC26XX.oem3 (.text:Power_init)
                             00003e34   RFCC26XX_singleMode.obj (.text:radioOpDoneCb$8)
                             00004320   power_cc26xx_tirtos.aem3 : PowerCC26XX_tirtos.oem3 (.text:PowerCC26XX_standbyPolicy)
                             00004dc8   icall.obj (.text:ICall_primSetTimer$15)
                             00004e58   UARTCC26XX.obj (.text:writeFinishedDoCallback$13)
                             00004f52   drivers_cc26xxware.aem3 : PowerCC26XX.oem3 (.text:switchXOSCHFclockFunc)
                             00005364                           : PowerCC26XX.oem3 (.text:disableLFClockQualifiers)
                             00005aa8   RFCC26XX_singleMode.obj (.text:decActiveClientCnt$8)
                             00005eb6   RFCC26XX_singleMode.obj (.text:fsmXOSCState$8)
                             00006186   drivers_cc26xxware.aem3 : PowerCC26XX.oem3 (.text:configureXOSCHF)
                             0000646c   UARTCC26XX.obj (.text:startTxFifoEmptyClk$13)
                             00006f28   util.obj (.text:Util_restartClock)
                             00007d06   rom_sysbios.aem3 : rom_sysbios.obj (.text:ti_sysbios_knl_Clock_stop__E)
                             000085d8   util.obj (.text:Util_startClock)
ti_sysbios_knl_Clock_setTimeout__E  $Tramp$TT$L$PI$$ti_sysbios_knl_Clock_setTimeout__E
   1001c2c1     00008744     00002d5e   RFCC26XX_singleMode.obj (.text:RF_postCmd)
                             000036ee   drivers_cc26xxware.aem3 : PowerCC26XX.oem3 (.text:Power_init)
                             00003e2c   RFCC26XX_singleMode.obj (.text:radioOpDoneCb$8)
                             0000431a   power_cc26xx_tirtos.aem3 : PowerCC26XX_tirtos.oem3 (.text:PowerCC26XX_standbyPolicy)
                             00004dc2   icall.obj (.text:ICall_primSetTimer$15)
                             00004e52   UARTCC26XX.obj (.text:writeFinishedDoCallback$13)
                             00004f4c   drivers_cc26xxware.aem3 : PowerCC26XX.oem3 (.text:switchXOSCHFclockFunc)
                             0000535e                           : PowerCC26XX.oem3 (.text:disableLFClockQualifiers)
                             00005aa2   RFCC26XX_singleMode.obj (.text:decActiveClientCnt$8)
                             00005eb0   RFCC26XX_singleMode.obj (.text:fsmXOSCState$8)
                             00006180   drivers_cc26xxware.aem3 : PowerCC26XX.oem3 (.text:configureXOSCHF)
                             00006466   UARTCC26XX.obj (.text:startTxFifoEmptyClk$13)
                             00006f22   util.obj (.text:Util_restartClock)
ti_sysbios_knl_Swi_construct  $Tramp$TT$L$PI$$ti_sysbios_knl_Swi_construct
   1001b085     0000874c     00002a30   PINCC26XX.obj (.text:PIN_init)
                             00002ee4   UARTCC26XX.obj (.text:UARTCC26XX_open)
                             00004064   RFCC26XX_singleMode.obj (.text:rf_init$8)
                             000040a6   RFCC26XX_singleMode.obj (.text:rf_init$8)
ti_sysbios_knl_Swi_Params__init__S  $Tramp$TT$L$PI$$ti_sysbios_knl_Swi_Params__init__S
   1001c1cd     00008754     00002a1e   PINCC26XX.obj (.text:PIN_init)
                             00002ed0   UARTCC26XX.obj (.text:UARTCC26XX_open)
                             00004050   RFCC26XX_singleMode.obj (.text:rf_init$8)
                             00004096   RFCC26XX_singleMode.obj (.text:rf_init$8)
ti_sysbios_family_arm_m3_Hwi_construct  $Tramp$TT$L$PI$$ti_sysbios_family_arm_m3_Hwi_construct
   1001af29     0000875c     00002a12   PINCC26XX.obj (.text:PIN_init)
                             00002ec4   UARTCC26XX.obj (.text:UARTCC26XX_open)
                             0000408a   RFCC26XX_singleMode.obj (.text:rf_init$8)
                             000040ca   RFCC26XX_singleMode.obj (.text:rf_init$8)
                             0000596c   drivers_cc26xxware.aem3 : PowerCC26XX.oem3 (.text:PowerCC26XX_calibrate)
ti_sysbios_family_arm_m3_Hwi_Params__init__S  $Tramp$TT$L$PI$$ti_sysbios_family_arm_m3_Hwi_Params__init__S
   1001c13d     00008764     000029fc   PINCC26XX.obj (.text:PIN_init)
                             00002eac   UARTCC26XX.obj (.text:UARTCC26XX_open)
                             00004070   RFCC26XX_singleMode.obj (.text:rf_init$8)
                             000040b2   RFCC26XX_singleMode.obj (.text:rf_init$8)
ti_sysbios_knl_Semaphore_construct  $Tramp$TT$L$PI$$ti_sysbios_knl_Semaphore_construct
   1001b709     0000876c     0000299a   PINCC26XX.obj (.text:PIN_init)
                             00002f04   UARTCC26XX.obj (.text:UARTCC26XX_open)
                             00002f18   UARTCC26XX.obj (.text:UARTCC26XX_open)
                             000045ec   RFCC26XX_singleMode.obj (.text:RF_open)
                             00005272   DisplayUart.obj (.text:DisplayUart_open)
ti_sysbios_knl_Semaphore_Params__init__S  $Tramp$TT$L$PI$$ti_sysbios_knl_Semaphore_Params__init__S
   1001c1c1     00008774     00002986   PINCC26XX.obj (.text:PIN_init)
                             00002ef0   UARTCC26XX.obj (.text:UARTCC26XX_open)
                             000045dc   RFCC26XX_singleMode.obj (.text:RF_open)
                             00005264   DisplayUart.obj (.text:DisplayUart_open)
ti_sysbios_knl_Task_restore__E  $Tramp$TT$L$PI$$ti_sysbios_knl_Task_restore__E
   1001ba49     0000877c     000022ac   drivers_cc26xxware.aem3 : PowerCC26XX.oem3 (.text:Power_sleep)
                             000058fc   icall.obj (.text:ICall_createRemoteTasks)
                             00008148   icall.obj (.text:ICall_leaveCSImpl)
ti_sysbios_knl_Swi_restore__E  $Tramp$TT$L$PI$$ti_sysbios_knl_Swi_restore__E
   1001b5e1     00008784     000022a2   drivers_cc26xxware.aem3 : PowerCC26XX.oem3 (.text:Power_sleep)
                             00003244   RFCC26XX_singleMode.obj (.text:abortCmd$8)
                             000052c8   RFCC26XX_singleMode.obj (.text:RF_pendCmd)
                             000052f4   RFCC26XX_singleMode.obj (.text:RF_pendCmd)
                             00005314   RFCC26XX_singleMode.obj (.text:RF_pendCmd)
ti_sysbios_knl_Swi_disable__E  $Tramp$TT$L$PI$$ti_sysbios_knl_Swi_disable__E
   1001c0d5     0000878c     000020fe   drivers_cc26xxware.aem3 : PowerCC26XX.oem3 (.text:Power_sleep)
                             00003222   RFCC26XX_singleMode.obj (.text:abortCmd$8)
                             000052b6   RFCC26XX_singleMode.obj (.text:RF_pendCmd)
                             0000762e   app_ble_pem3.oem3 (.text:ti_sysbios_BIOS_atExitFunc__I)
ti_sysbios_knl_Task_disable__E  $Tramp$TT$L$PI$$ti_sysbios_knl_Task_disable__E
   1001c0f5     00008794     000020e6   drivers_cc26xxware.aem3 : PowerCC26XX.oem3 (.text:Power_sleep)
                             000058b2   icall.obj (.text:ICall_createRemoteTasks)
                             00007632   app_ble_pem3.oem3 (.text:ti_sysbios_BIOS_atExitFunc__I)
                             00007e8e   icall.obj (.text:ICall_enterCSImpl)
                             0000834e   icall.obj (.text:ICall_primDisableMInt$15)
ti_sysbios_family_arm_m3_Hwi_restoreFxn__E  $Tramp$TT$L$PI$$ti_sysbios_family_arm_m3_Hwi_restoreFxn__E
   1001c219     0000879c     00001c00   RFCC26XX_singleMode.obj (.text:fsmActiveState$8)
                             00001c1a   RFCC26XX_singleMode.obj (.text:fsmActiveState$8)
                             00002d0c   RFCC26XX_singleMode.obj (.text:RF_postCmd)
                             00002d6e   RFCC26XX_singleMode.obj (.text:RF_postCmd)
                             00002dca   RFCC26XX_singleMode.obj (.text:RF_postCmd)
                             00002e02   UARTCC26XX.obj (.text:UARTCC26XX_open)
                             00002e12   UARTCC26XX.obj (.text:UARTCC26XX_open)
                             00002e9c   UARTCC26XX.obj (.text:UARTCC26XX_open)
                             00003178   RFCC26XX_singleMode.obj (.text:abortCmd$8)
                             000031a0   RFCC26XX_singleMode.obj (.text:abortCmd$8)
                             000031d4   RFCC26XX_singleMode.obj (.text:abortCmd$8)
                             00003236   RFCC26XX_singleMode.obj (.text:abortCmd$8)
                             00003266   RFCC26XX_singleMode.obj (.text:abortCmd$8)
                             000037d0   UARTCC26XX.obj (.text:UARTCC26XX_read)
                             0000380e   UARTCC26XX.obj (.text:UARTCC26XX_read)
                             00003b92   UARTCC26XX.obj (.text:UARTCC26XX_write)
                             00003bae   UARTCC26XX.obj (.text:UARTCC26XX_write)
                             00003c4c   UARTCC26XX.obj (.text:UARTCC26XX_write)
                             00003dec   RFCC26XX_singleMode.obj (.text:radioOpDoneCb$8)
                             000041d0   PINCC26XX.obj (.text:PINCC26XX_setIoCfg$7)
                             00004466   drivers_cc26xxware.aem3 : PowerCC26XX.oem3 (.text:Power_releaseDependency)
                             00004536                           : PowerCC26XX.oem3 (.text:Power_setDependency)
                             00004586   RFCC26XX_singleMode.obj (.text:RF_open)
                             00004594   RFCC26XX_singleMode.obj (.text:RF_open)
                             00004892   UARTCC26XX.obj (.text:writeTxFifoFlush$13)
                             00004986   TRNGCC26XX.obj (.text:TRNGCC26XX_getNumber)
                             00004e12   UARTCC26XX.obj (.text:writeFinishedDoCallback$13)
                             00004f7a   drivers_cc26xxware.aem3 : PowerCC26XX.oem3 (.text:switchXOSCHFclockFunc)
                             00004faa   UARTCC26XX.obj (.text:UARTCC26XX_writeCancel)
                             00004fb6   UARTCC26XX.obj (.text:UARTCC26XX_writeCancel)
                             00004ffc   UARTCC26XX.obj (.text:UARTCC26XX_writeCancel)
                             000053f0   RFCC26XX_singleMode.obj (.text:swiFxnHw$8)
                             0000540c   RFCC26XX_singleMode.obj (.text:swiFxnHw$8)
                             000056d2   UARTCC26XX.obj (.text:UARTCC26XX_close)
                             00005a20   UARTCC26XX.obj (.text:UARTCC26XX_readCancel)
                             00005a2c   UARTCC26XX.obj (.text:UARTCC26XX_readCancel)
                             00005a36   UARTCC26XX.obj (.text:UARTCC26XX_readCancel)
                             00005aae   RFCC26XX_singleMode.obj (.text:decActiveClientCnt$8)
                             00005c8c   UARTCC26XX.obj (.text:UARTCC26XX_control)
                             0000606a   drivers_cc26xxware.aem3 : PowerCC26XX_calibrateRCOSC.oem3 (.text:PowerCC26XX_initiateCalibration)
                             000060ae   RFCC26XX_singleMode.obj (.text:RF_getCurrentTime)
                             000060b6   RFCC26XX_singleMode.obj (.text:RF_getCurrentTime)
                             00006236   RFCC26XX_singleMode.obj (.text:ratChanFree$8)
                             000063ce   RFCC26XX_singleMode.obj (.text:RF_getInfo)
                             000067bc   drivers_cc26xxware.aem3 : RingBuf.oem3 (.text:RingBuf_put)
                             000067e6                           : RingBuf.oem3 (.text:RingBuf_put)
                             00006a68   RFCC26XX_singleMode.obj (.text:RF_getRssi)
                             00006ab6   drivers_cc26xxware.aem3 : RingBuf.oem3 (.text:RingBuf_get)
                             00006abe                           : RingBuf.oem3 (.text:RingBuf_get)
                             00006d44   RFCC26XX_singleMode.obj (.text:postDirImmCmd$8)
                             00006d58   RFCC26XX_singleMode.obj (.text:postDirImmCmd$8)
                             00006ee2   UARTCC26XX.obj (.text:UARTCC26XX_swiIntFxn)
                             000071a0   drivers_cc26xxware.aem3 : PowerCC26XX.oem3 (.text:PowerCC26XX_isStableXOSC_HF)
                             000071dc   RFCC26XX_singleMode.obj (.text:Q_push$8)
                             000075f0   drivers_cc26xxware.aem3 : PowerCC26XX.oem3 (.text:Power_releaseConstraint)
                             00007620                           : PowerCC26XX.oem3 (.text:Power_setConstraint)
                             00007a46                           : PowerCC26XX.oem3 (.text:PowerCC26XX_switchXOSC_HF)
                             00007aba   TRNGCC26XX.obj (.text:TRNGCC26XX_init)
                             00007b10   drivers_cc26xxware.aem3 : List.oem3 (.text:List_put)
                             00007c88                           : PowerCC26XX.oem3 (.text:Power_unregisterNotify)
                             00007e46   TRNGCC26XX.obj (.text:TRNGCC26XX_open)
                             00008058   RFCC26XX_singleMode.obj (.text:Q_pop$8)
                             00008140   icall.obj (.text:ICall_leaveCSImpl)
ti_sysbios_family_arm_m3_Hwi_disableFxn__E  $Tramp$TT$L$PI$$ti_sysbios_family_arm_m3_Hwi_disableFxn__E
   1001c149     000087a4     00001be0   RFCC26XX_singleMode.obj (.text:fsmActiveState$8)
                             00002c4c   RFCC26XX_singleMode.obj (.text:RF_postCmd)
                             00002d22   RFCC26XX_singleMode.obj (.text:RF_postCmd)
                             00002df8   UARTCC26XX.obj (.text:UARTCC26XX_open)
                             00002e96   UARTCC26XX.obj (.text:UARTCC26XX_open)
                             00003118   RFCC26XX_singleMode.obj (.text:abortCmd$8)
                             000037b8   UARTCC26XX.obj (.text:UARTCC26XX_read)
                             000037fa   UARTCC26XX.obj (.text:UARTCC26XX_read)
                             00003b74   UARTCC26XX.obj (.text:UARTCC26XX_write)
                             00003b96   UARTCC26XX.obj (.text:UARTCC26XX_write)
                             00003bee   UARTCC26XX.obj (.text:UARTCC26XX_write)
                             00003c38   UARTCC26XX.obj (.text:UARTCC26XX_write)
                             00003dca   RFCC26XX_singleMode.obj (.text:radioOpDoneCb$8)
                             000041bc   PINCC26XX.obj (.text:PINCC26XX_setIoCfg$7)
                             000043b2   drivers_cc26xxware.aem3 : PowerCC26XX.oem3 (.text:Power_releaseDependency)
                             00004486                           : PowerCC26XX.oem3 (.text:Power_setDependency)
                             0000457e   RFCC26XX_singleMode.obj (.text:RF_open)
                             00004880   UARTCC26XX.obj (.text:writeTxFifoFlush$13)
                             00004908   TRNGCC26XX.obj (.text:TRNGCC26XX_getNumber)
                             00004dfa   UARTCC26XX.obj (.text:writeFinishedDoCallback$13)
                             00004f04   drivers_cc26xxware.aem3 : PowerCC26XX.oem3 (.text:switchXOSCHFclockFunc)
                             00004f9a   UARTCC26XX.obj (.text:UARTCC26XX_writeCancel)
                             00004fe6   UARTCC26XX.obj (.text:UARTCC26XX_writeCancel)
                             000053aa   RFCC26XX_singleMode.obj (.text:swiFxnHw$8)
                             000056ca   UARTCC26XX.obj (.text:UARTCC26XX_close)
                             00005a08   UARTCC26XX.obj (.text:UARTCC26XX_readCancel)
                             00005a24   UARTCC26XX.obj (.text:UARTCC26XX_readCancel)
                             00005a58   RFCC26XX_singleMode.obj (.text:decActiveClientCnt$8)
                             00005c66   UARTCC26XX.obj (.text:UARTCC26XX_control)
                             00006056   drivers_cc26xxware.aem3 : PowerCC26XX_calibrateRCOSC.oem3 (.text:PowerCC26XX_initiateCalibration)
                             0000609e   RFCC26XX_singleMode.obj (.text:RF_getCurrentTime)
                             000061f4   RFCC26XX_singleMode.obj (.text:ratChanFree$8)
                             00006392   RFCC26XX_singleMode.obj (.text:RF_getInfo)
                             000067ae   drivers_cc26xxware.aem3 : RingBuf.oem3 (.text:RingBuf_put)
                             00006a58   RFCC26XX_singleMode.obj (.text:RF_getRssi)
                             00006a8e   drivers_cc26xxware.aem3 : RingBuf.oem3 (.text:RingBuf_get)
                             00006d2c   RFCC26XX_singleMode.obj (.text:postDirImmCmd$8)
                             00006eca   UARTCC26XX.obj (.text:UARTCC26XX_swiIntFxn)
                             0000717e   drivers_cc26xxware.aem3 : PowerCC26XX.oem3 (.text:PowerCC26XX_isStableXOSC_HF)
                             000071be   RFCC26XX_singleMode.obj (.text:Q_push$8)
                             000071c6   RFCC26XX_singleMode.obj (.text:Q_push$8)
                             000075d0   drivers_cc26xxware.aem3 : PowerCC26XX.oem3 (.text:Power_releaseConstraint)
                             00007600                           : PowerCC26XX.oem3 (.text:Power_setConstraint)
                             00007a2a                           : PowerCC26XX.oem3 (.text:PowerCC26XX_switchXOSC_HF)
                             00007aa2   TRNGCC26XX.obj (.text:TRNGCC26XX_init)
                             00007c78   drivers_cc26xxware.aem3 : PowerCC26XX.oem3 (.text:Power_unregisterNotify)
                             00007e3a   TRNGCC26XX.obj (.text:TRNGCC26XX_open)
                             00007e98   icall.obj (.text:ICall_enterCSImpl)
                             0000804c   RFCC26XX_singleMode.obj (.text:Q_pop$8)
                             00008352   icall.obj (.text:ICall_primDisableMInt$15)
                             000085cc   tirtosport.aem3 : HwiP_tirtos.oem3 (.text:HwiP_disable)
ti_sysbios_knl_Queue_empty__E  $Tramp$TT$L$PI$$ti_sysbios_knl_Queue_empty__E
   1001c113     000087ac     00000bca   simple_peripheral.obj (.text:SimpleBLEPeripheral_taskFxn$28)
ti_sysbios_knl_Queue_get__E  $Tramp$TT$L$PI$$ti_sysbios_knl_Queue_get__E
   1001bf11     000087b4     00000afc   simple_peripheral.obj (.text:SimpleBLEPeripheral_taskFxn$28)
ti_sysbios_knl_Queue_construct  $Tramp$TT$L$PI$$ti_sysbios_knl_Queue_construct
   1001b8f5     000087bc     0000061c   simple_peripheral.obj (.text:SimpleBLEPeripheral_taskFxn$28)

[58 trampolines]
[285 trampoline calls]


GLOBAL SYMBOLS: SORTED ALPHABETICALLY BY Name 

address   name                                                                      
-------   ----                                                                      
10014c00  A1_rw                                                                     
10019ffe  A2_rw                                                                     
10019ffc  A3_rw                                                                     
20004f2c  A4_rw                                                                     
20004f7c  ACCX                                                                      
20004f80  ACCY                                                                      
20004f84  ACCZ                                                                      
10015229  ATOMICPATTERN                                                             
10016c29  AddRoundKeySubBytes_Sw                                                    
10018a19  AesCcm_authEncrypt_Sw                                                     
10018a35  AesCcm_decryptAuth_Sw                                                     
10018b09  AesCcm_getNumBlocks_Sw                                                    
10018ac5  Aes_decrypt_Sw                                                            
10018a99  Aes_encrypt_Sw                                                            
000033c9  AssertHandler                                                             
000089dc  BoardGpioInitTable                                                        
00005841  Board_ledControl                                                          
00006245  C$$EXIT                                                                   
20004f2c  COMMON_RAM_BASE_ADDR                                                      
10014c01  COMMON_ROM_BASE_ADDR                                                      
10015a6d  COPY                                                                      
00000501  DefaultAssertCback                                                        
00004b7b  DisplayUart_clear                                                         
0000549f  DisplayUart_clearLines                                                    
00007f0f  DisplayUart_close                                                         
0000854f  DisplayUart_control                                                       
00008ac0  DisplayUart_fxnTable                                                      
00008555  DisplayUart_getType                                                       
00005235  DisplayUart_open                                                          
00005d09  DisplayUart_put5                                                          
00008adc  Display_config                                                            
00008a57  Display_defaultParams                                                     
00006989  Display_doOpen                                                            
00007bf1  Display_doPut5                                                            
10017959  ECC_allocWorkzone                                                         
10017961  ECC_setWin                                                                
10017969  ECDSA_sign                                                                
10017b01  ECDSA_verif                                                               
10015a11  EXPORTOPERAND                                                             
20004f78  EXPW                                                                      
20004f6c  EXPX                                                                      
20004f70  EXPY                                                                      
20004f74  EXPZ                                                                      
10016f58  FFMult2                                                                   
10017058  FFMult3                                                                   
10016d05  FFMult_Sw                                                                 
10018d6c  Fill1                                                                     
00006fdd  GAPBondMgr_SetParameter                                                   
000034f5  GAPRole_GetParameter                                                      
00001c51  GAPRole_SetParameter                                                      
000065f9  GAPRole_TerminateConnection                                               
000069c9  GAPRole_createTask                                                        
00008291  GAP_EndDiscoverable                                                       
00006b85  GAP_GetParamValue                                                         
00007011  GAP_SetParamValue                                                         
000062ed  GAP_UpdateAdvertisingData                                                 
00006bc1  GATTServApp_RegisterService                                               
00007f29  GATT_bm_free                                                              
10015141  GETBIT                                                                    
10015155  GETDIGIT                                                                  
100151a5  GETDIGITL2R                                                               
00007775  HCI_EXT_ConnEventNoticeCmd                                                
20000f44  HEAPMGR_SIZE                                                              
000085cd  HwiP_disable                                                              
UNDEFED   HwiP_restore                                                              
00006bfd  ICallPlatform_pwrConfigACAction                                           
00007f41  ICallPlatform_pwrDispense                                                 
00008331  ICallPlatform_pwrGetTransitionState                                       
000082a1  ICallPlatform_pwrGetXOSCStartupTime                                       
0000833f  ICallPlatform_pwrIsStableXOSCHF                                           
000074ad  ICallPlatform_pwrRegisterNotify                                           
00007f59  ICallPlatform_pwrRequire                                                  
000084e9  ICallPlatform_pwrSwitchXOSCHF                                             
00005519  ICallPlatform_pwrUpdActivityCounter                                       
000058ad  ICall_createRemoteTasks                                                   
20000f20  ICall_dispatcher                                                          
00007e8d  ICall_enterCSImpl                                                         
20000f28  ICall_enterCriticalSection                                                
000077a1  ICall_heapFree                                                            
00005131  ICall_heapMalloc                                                          
00008139  ICall_leaveCSImpl                                                         
20000f2c  ICall_leaveCriticalSection                                                
000070e1  ICall_searchServiceEntity                                                 
10015a35  IMPORTDATA                                                                
100159a9  IMPORTLENGTH                                                              
100159ad  IMPORTMODULUS                                                             
100159d1  IMPORTOPERAND                                                             
1001568d  INVERT                                                                    
10016da1  InvAddRoundKey_Sw                                                         
10016ed5  InvMixColumns_Sw                                                          
10016dc9  InvRoundKey_Sw                                                            
10017264  InvSbox                                                                   
10016ea1  InvShiftRows_Sw                                                           
10016e8d  InvSubBytes_Sw                                                            
100154f5  JACADD                                                                    
20004fe8  LEN                                                                       
100158ac  LUTC                                                                      
100158dc  LUTINCI                                                                   
100158f4  LUTJ                                                                      
1001588c  LUTOPCODE                                                                 
10015894  LUTOPSIGN                                                                 
100158c4  LUTSE                                                                     
1001596c  LUTSTATE                                                                  
000084fd  List_empty                                                                
00000481  List_head                                                                 
000085d1  List_next                                                                 
00007af1  List_put                                                                  
00007ec1  List_remove                                                               
10018825  MB_ClearInts                                                              
100187f5  MB_DisableInts                                                            
10018835  MB_EnableHWInts                                                           
10018799  MB_EnableInts                                                             
10018945  MB_FwDebugDump                                                            
10018755  MB_Init                                                                   
10018935  MB_ReadMailboxStatus                                                      
1001893d  MB_RegisterIsrCback                                                       
10018865  MB_SendCommand                                                            
100188a5  MB_SendCommandSynch                                                       
20004fe4  MOD                                                                       
20004fd8  MSBMOD                                                                    
10016c79  MixColumns_Sw                                                             
10018b9c  NIST_Curve_P256_Gx                                                        
10018bc0  NIST_Curve_P256_Gy                                                        
10018b54  NIST_Curve_P256_a                                                         
10018b78  NIST_Curve_P256_b                                                         
10018b0c  NIST_Curve_P256_p                                                         
10018b30  NIST_Curve_P256_r                                                         
000079d9  NOROM_AONBatMonTemperatureGetDegC                                         
000081b9  NOROM_AONRTCCurrent64BitValueGet                                          
00007fd1  NOROM_AONRTCCurrentCompareValueGet                                        
00008459  NOROM_CPUcpsid                                                            
00008465  NOROM_CPUcpsie                                                            
00006641  NOROM_ChipInfo_GetChipFamily                                              
00007fe9  NOROM_ChipInfo_GetPackageType                                             
00006a09  NOROM_DDI16BitfieldRead                                                   
00006689  NOROM_DDI16BitfieldWrite                                                  
00007115  NOROM_DDI32RegWrite                                                       
00007dad  NOROM_OSCClockSourceGet                                                   
00006515  NOROM_OSCClockSourceSet                                                   
00005dc5  NOROM_OSCHF_AttemptToSwitchToXosc                                         
000050a9  NOROM_OSCHF_GetStartupTime                                                
00007149  NOROM_OSCHF_SwitchToRcOscTurnOffXosc                                      
00008001  NOROM_OSCHF_TurnOnXosc                                                    
00006c75  NOROM_OSC_HPOSCRelativeFrequencyOffsetGet                                 
00008019  NOROM_RFCCpeIntGetAndClear                                                
00007a01  NOROM_RFCDoorbellSendTo                                                   
0000756d  NOROM_SetupSetAonRtcSubSecInc                                             
00003281  NOROM_SetupTrimDevice                                                     
00005e21  NOROM_SysCtrlAdjustRechargeAfterPowerDown                                 
000022ed  NOROM_SysCtrlSetRechargeBeforePowerDown                                   
00005985  NOROM_SysCtrl_DCDC_VoltageConditionalControl                              
0000759d  NOROM_TRNGConfigure                                                       
00008385  NOROM_VIMSModeGet                                                         
10014c04  P1_ro                                                                     
10019ffe  P1_ro_2                                                                   
20004f40  P2_rw                                                                     
20004f40  P2_s0                                                                     
20004fac  P2_zi                                                                     
00007851  PINCC26XX_setMux                                                          
20001de8  PIN_HandleTable                                                           
20001d54  PIN_NumPins                                                               
00007d53  PIN_close                                                                 
000081cd  PIN_getInputValue                                                         
000028b9  PIN_init                                                                  
00004b7d  PIN_open                                                                  
0000855b  PIN_registerIntCb                                                         
00005fed  PIN_remove                                                                
0000787d  PIN_setConfig                                                             
00006e8d  PIN_setOutputValue                                                        
00005be9  PowerCC26XX_RCOSC_clockFunc                                               
00005601  PowerCC26XX_auxISR                                                        
00005919  PowerCC26XX_calibrate                                                     
00008b58  PowerCC26XX_config                                                        
00002f81  PowerCC26XX_doCalibrate                                                   
000050a9  PowerCC26XX_getXoscStartupTime                                            
00006045  PowerCC26XX_initiateCalibration                                           
0000717d  PowerCC26XX_isStableXOSC_HF                                               
20000e10  PowerCC26XX_module                                                        
000042d9  PowerCC26XX_standbyPolicy                                                 
00007a29  PowerCC26XX_switchXOSC_HF                                                 
00008471  Power_getConstraintMask                                                   
0000847d  Power_getDependencyCount                                                  
00007d71  Power_getTransitionLatency                                                
00008489  Power_getTransitionState                                                  
00008031  Power_idleFunc                                                            
00003615  Power_init                                                                
00007a51  Power_registerNotify                                                      
000075cd  Power_releaseConstraint                                                   
000043ad  Power_releaseDependency                                                   
000075fd  Power_setConstraint                                                       
00004481  Power_setDependency                                                       
000020c5  Power_sleep                                                               
00007c75  Power_unregisterNotify                                                    
10017158  RCon                                                                      
10018415  RFHAL_AddTxDataEntry                                                      
100184f9  RFHAL_AllocDataEntry                                                      
100184a9  RFHAL_AllocDataEntryQueue                                                 
10018315  RFHAL_AllocRatChan                                                        
100185e1  RFHAL_BuildDataEntryRingBuffer                                            
10018669  RFHAL_BuildLinkedBuffer                                                   
10018551  RFHAL_BuildRingBuffer                                                     
10018549  RFHAL_FreeDataEntry                                                       
100184c5  RFHAL_FreeDataEntryQueue                                                  
10018485  RFHAL_FreeNextTxDataEntry                                                 
1001833d  RFHAL_FreeRatChan                                                         
100184cd  RFHAL_GetNextDataEntry                                                    
100184d1  RFHAL_GetTempDataEntry                                                    
100183b9  RFHAL_InitDataQueue                                                       
100182ad  RFHAL_InitRfHal                                                           
10018369  RFHAL_MapRatChansToInt                                                    
100184d5  RFHAL_NextDataEntryDone                                                   
100183c5  RFHAL_QueueRFDataEntries                                                  
10018391  RFHAL_RegisterRatChanCallback                                             
00003105  RF_cancelCmd                                                              
00008507  RF_flushCmd                                                               
00008259  RF_getCmdOp                                                               
0000609d  RF_getCurrentTime                                                         
0000638d  RF_getInfo                                                                
00006a49  RF_getRssi                                                                
00004551  RF_open                                                                   
000052b1  RF_pendCmd                                                                
00002c41  RF_postCmd                                                                
000071e5  RF_runCmd                                                                 
00007e01  RF_runDirectCmd                                                           
00007e1d  RF_runImmediateCmd                                                        
00006879  ResetISR                                                                  
0000826b  RingBuf_construct                                                         
00006a89  RingBuf_get                                                               
000067a9  RingBuf_put                                                               
10016b79  RoundKey_Sw                                                               
10015101  SAVEPOINT                                                                 
20004f68  SCAL                                                                      
100150e5  SCALARMUL                                                                 
10014ced  SCALARMUL_core                                                            
10015019  SCALARMUL_final                                                           
10014c05  SCALARMUL_init                                                            
10015a51  SETOPERAND                                                                
10015a91  SETWORD                                                                   
10018089  SHA256_final                                                              
10018129  SHA256_full                                                               
10017ffd  SHA256_init                                                               
10017ef1  SHA256_nextState                                                          
10018019  SHA256_process                                                            
10017e75  SHA256_round                                                              
10017f49  SHA256_saveBuffer                                                         
10017e39  SHA256_updateW                                                            
UNDEFED   SHT$$INIT_ARRAY$$Base                                                     
UNDEFED   SHT$$INIT_ARRAY$$Limit                                                    
10015821  SQUAREMULTIPLYWORD                                                        
10017895  SSP_CCM_Auth_Encrypt_Sw                                                   
10017365  SSP_CCM_Auth_Sw                                                           
1001767d  SSP_CCM_Decrypt_Sw                                                        
100174fd  SSP_CCM_Encrypt_Sw                                                        
100178f5  SSP_CCM_InvAuth_Decrypt_Sw                                                
10017839  SSP_CCM_InvAuth_Sw                                                        
10017771  SSP_CTR_Decrypt_Sw                                                        
100175ed  SSP_CTR_Encrypt_Sw                                                        
00007a79  SafeHapiVoid                                                              
10017164  Sbox                                                                      
10015215  SelectReg                                                                 
10016c45  ShiftRows_Sw                                                              
00006cb1  SimpleBLEPeripheral_createTask                                            
00008517  SimpleBLEPeripheral_keyChangeHandler                                      
00006835  SimpleProfile_GetParameter                                                
0000003d  SimpleProfile_SetParameter                                                
20004f88  TMP1                                                                      
20004f8c  TMP2                                                                      
20004f90  TMP3                                                                      
20004f94  TMP4                                                                      
20004f98  TMP5                                                                      
20004f9c  TMP6                                                                      
00008bc4  TRNGCC26XXHWAttrs                                                         
00008b68  TRNGCC26XX_config                                                         
00004901  TRNGCC26XX_getNumber                                                      
00007aa1  TRNGCC26XX_init                                                           
00007e39  TRNGCC26XX_open                                                           
00005675  UARTCC26XX_close                                                          
00005c49  UARTCC26XX_control                                                        
00008a08  UARTCC26XX_fxnTable                                                       
00003955  UARTCC26XX_hwiIntFxn                                                      
00008061  UARTCC26XX_init                                                           
00002de9  UARTCC26XX_open                                                           
00003731  UARTCC26XX_read                                                           
000059ed  UARTCC26XX_readCancel                                                     
00008561  UARTCC26XX_readPolling                                                    
00006ec5  UARTCC26XX_swiIntFxn                                                      
00003b65  UARTCC26XX_write                                                          
00004f91  UARTCC26XX_writeCancel                                                    
00008567  UARTCC26XX_writePolling                                                   
00008af4  UART_config                                                               
00008a58  UART_defaultParams                                                        
000066d1  Util_constructClock                                                       
000063dd  Util_convertBdAddr2Str                                                    
000082d1  Util_isActive                                                             
00006efd  Util_restartClock                                                         
000085d9  Util_startClock                                                           
000085dd  Util_stopClock                                                            
10015a85  ZERO                                                                      
00000000  __ASM__                                                                   
00000072  __ISA__                                                                   
00000084  __PLAT__                                                                  
20004320  __STACK_END                                                               
00000400  __STACK_SIZE                                                              
20004320  __STACK_TOP                                                               
000000ab  __TARG__                                                                  
00009070  __TI_CINIT_Base                                                           
000090d0  __TI_CINIT_Limit                                                          
00009030  __TI_Handler_Table_Base                                                   
0000903c  __TI_Handler_Table_Limit                                                  
000049a1  __TI_auto_init                                                            
200012f0  __TI_cleanup_ptr                                                          
00005abd  __TI_decompress_lzss                                                      
00008393  __TI_decompress_none                                                      
200012f4  __TI_dtors_ptr                                                            
200012f8  __TI_enable_exit_profile_output                                           
ffffffff  __TI_pprof_out_hndl                                                       
ffffffff  __TI_prof_data_size                                                       
ffffffff  __TI_prof_data_start                                                      
00008c10  __TI_static_base__                                                        
00008495  __TI_zero_init                                                            
000000d0  __TRDR__                                                                  
000062eb  __aeabi_idiv0                                                             
000080c1  __aeabi_lmul                                                              
00005425  __aeabi_memclr                                                            
00005425  __aeabi_memclr4                                                           
00005425  __aeabi_memclr8                                                           
00004adf  __aeabi_memcpy                                                            
00004adf  __aeabi_memcpy4                                                           
00004adf  __aeabi_memcpy8                                                           
00005427  __aeabi_memset                                                            
00005427  __aeabi_memset4                                                           
00005427  __aeabi_memset8                                                           
00006ac9  __aeabi_uidiv                                                             
00006ac9  __aeabi_uidivmod                                                          
000024f5  __aeabi_uldivmod                                                          
ffffffff  __binit__                                                                 
ffffffff  __c_args__                                                                
0001ffa8  __ccfg                                                                    
10019ffe  __checksum_CommonROM                                                      
10014c00  __checksum_begin_CommonROM                                                
10019ffd  __checksum_end_CommonROM                                                  
0000e0ea  __checksum_value_CommonROM                                                
10018ced  __exit                                                                    
20003f20  __stack                                                                   
000080a9  _args_main                                                                
00006879  _c_int00                                                                  
2000131c  _lock                                                                     
00008209  _nop                                                                      
00008211  _register_lock                                                            
0000820b  _register_unlock                                                          
20001320  _unlock                                                                   
00006249  abort                                                                     
20001390  appAssertCback                                                            
200010c4  appKeyChangeHandler                                                       
000089ca  appearanceUUID                                                            
20004fdc  aux64                                                                     
ffffffff  binit                                                                     
000089c6  charAggFormatUUID                                                         
000089bc  charExtPropsUUID                                                          
000089c4  charFormatUUID                                                            
000089be  charUserDescUUID                                                          
000089b2  characterUUID                                                             
000089c0  clientCharCfgUUID                                                         
00006561  copy_in                                                                   
00008be8  devInfo11073CertUUID                                                      
00008b78  devInfoCBs                                                                
00008bea  devInfoFirmwareRevUUID                                                    
00008bec  devInfoHardwareRevUUID                                                    
00008bee  devInfoMfrNameUUID                                                        
00008bf0  devInfoModelNumberUUID                                                    
00008bf2  devInfoPnpIdUUID                                                          
00008bf4  devInfoSerialNumberUUID                                                   
00008bf6  devInfoServUUID                                                           
00008bf8  devInfoSoftwareRevUUID                                                    
00008bfa  devInfoSystemIdUUID                                                       
000089c8  deviceNameUUID                                                            
20000590  dispHandle                                                                
00008b20  displayUartHWAttrs                                                        
20001fac  displayUartObject                                                         
00008165  driverTable_fnSpinlock                                                    
20002006  driverlib_release_0_47020                                                 
10017dbd  eccRom_genKeys                                                            
10017ded  eccRom_genSharedSecret                                                    
20004fa0  eccRom_param_Gx                                                           
20004fa4  eccRom_param_Gy                                                           
20004f50  eccRom_param_a                                                            
20004fa8  eccRom_param_b                                                            
20004f48  eccRom_param_p                                                            
20004f4c  eccRom_param_r                                                            
20004f40  eccRom_windowSize                                                         
20004f44  eccRom_workzone                                                           
00006251  exit                                                                      
000089d6  extReportRefUUID                                                          
20004fcc  fwInfoCmd                                                                 
2000031c  gapRoleTask                                                               
2000036c  gapRoleTaskStack                                                          
00008091  gapRole_clockHandler                                                      
000089b4  gapServiceUUID                                                            
000089b6  gattServiceUUID                                                           
200010c8  hKeyPins                                                                  
20003f20  heapEnd                                                                   
20002007  heapStart                                                                 
20004f58  inPointX                                                                  
20004f5c  inPointY                                                                  
20004f54  inScalar                                                                  
000089ba  includeUUID                                                               
200010d8  keyPins                                                                   
200010cc  keyPinsCfg                                                                
200012fc  lastAppOpcodeSent                                                         
20000fbc  ledPinTable                                                               
20000208  linkDBNumConns                                                            
10016551  mADD                                                                      
10015bd5  mINVK                                                                     
10015f81  mMULT                                                                     
10016749  mOUT                                                                      
10015a9d  mSET                                                                      
1001664d  mSUB                                                                      
00003f49  main                                                                      
20001394  main_func_sp                                                              
10018949  mbCmdAckIsr                                                               
1001895d  mbCpe0Isr                                                                 
10018985  mbCpe1Isr                                                                 
100189e5  mbHwIsr                                                                   
00004adf  memcpy                                                                    
0000542d  memset                                                                    
00007e71  openTRNG                                                                  
00007219  osal_snv_read                                                             
0000724d  osal_snv_write                                                            
20004f60  outPointX                                                                 
20004f64  outPointY                                                                 
20004ffc  pSspAesEncrypt_Sw                                                         
000089d0  periConnParamUUID                                                         
000089cc  periPrivacyFlagUUID                                                       
20001300  pfnBMAlloc                                                                
20001304  pfnBMFree                                                                 
000089b0  primaryServiceUUID                                                        
20004fac  ratChanInfo                                                               
000089ce  reconnectAddrUUID                                                         
000089d8  reportRefUUID                                                             
00008890  resourceDB                                                                
000088dc  rfDriverTable                                                             
2000101c  rfRegTbl                                                                  
2000061c  sbpTask                                                                   
2000066c  sbpTaskStack                                                              
000089b8  secondaryServiceUUID                                                      
000089c2  servCharCfgUUID                                                           
000089d2  serviceChangedUUID                                                        
00008b84  simpleProfileCBs                                                          
00008bfc  simpleProfileServUUID                                                     
00008bfe  simpleProfilechar1UUID                                                    
00008c00  simpleProfilechar2UUID                                                    
00008c02  simpleProfilechar3UUID                                                    
00008c04  simpleProfilechar4UUID                                                    
00008c06  simpleProfilechar5UUID                                                    
10016d29  sspAesDecrypt_Sw                                                          
10016af5  sspAesEncryptBasic_Sw                                                     
10016a99  sspAesEncryptKeyExp_Sw                                                    
10016979  sspAesEncrypt_Sw                                                          
10016985  sspKeyExpansion_Sw                                                        
10016975  ssp_KeyInit_Sw                                                            
0000821d  strlen                                                                    
200001a4  ti_sysbios_BIOS_Module__state__V                                          
1001bc29  ti_sysbios_BIOS_RtsGateProxy_Handle__label__S                             
UNDEFED   ti_sysbios_BIOS_RtsGateProxy_Handle__label__S__mangled__                  
1001bab9  ti_sysbios_BIOS_RtsGateProxy_Object__delete__S                            
UNDEFED   ti_sysbios_BIOS_RtsGateProxy_Object__delete__S__mangled__                 
1001c179  ti_sysbios_BIOS_RtsGateProxy_Params__init__S                              
UNDEFED   ti_sysbios_BIOS_RtsGateProxy_Params__init__S__mangled__                   
1001c249  ti_sysbios_BIOS_RtsGateProxy_enter__E                                     
1001c24d  ti_sysbios_BIOS_RtsGateProxy_leave__E                                     
1001c275  ti_sysbios_BIOS_RtsGateProxy_query__E                                     
UNDEFED   ti_sysbios_BIOS_RtsGateProxy_query__E__mangled__                          
0000762d  ti_sysbios_BIOS_atExitFunc__I                                             
0000817b  ti_sysbios_BIOS_exitFunc__I                                               
1001c035  ti_sysbios_BIOS_exit__E                                                   
1001bff9  ti_sysbios_BIOS_getCpuFreq__E                                             
000084ad  ti_sysbios_BIOS_getThreadType__E                                          
000067ef  ti_sysbios_BIOS_linkedWithIncorrectBootLibrary__E                         
00006987  ti_sysbios_BIOS_nullFunc__I                                               
00007b85  ti_sysbios_BIOS_registerRTSLock__I                                        
00007ba9  ti_sysbios_BIOS_removeRTSLock__I                                          
00007cb5  ti_sysbios_BIOS_rtsLock__I                                                
000080f1  ti_sysbios_BIOS_rtsUnlock__I                                              
1001c045  ti_sysbios_BIOS_setThreadType__E                                          
0000765d  ti_sysbios_BIOS_startFunc__I                                              
1001c055  ti_sysbios_BIOS_start__E                                                  
00003281  ti_sysbios_family_arm_cc26xx_Boot_trimDevice                              
00000502  ti_sysbios_family_arm_cc26xx_Timer_Module__id__C                          
1001bb49  ti_sysbios_family_arm_cc26xx_Timer_Module__startupDone__S                 
200001e4  ti_sysbios_family_arm_cc26xx_Timer_Module__state__V                       
1001ba71  ti_sysbios_family_arm_cc26xx_Timer_Module_startup__E                      
20001108  ti_sysbios_family_arm_cc26xx_Timer_Object__table__V                       
00007cd5  ti_sysbios_family_arm_cc26xx_Timer_dynamicStub__E                         
000085e5  ti_sysbios_family_arm_cc26xx_Timer_getCount64__E                          
00006f35  ti_sysbios_family_arm_cc26xx_Timer_getCurrentTick__E                      
1001c251  ti_sysbios_family_arm_cc26xx_Timer_getExpiredTicks__E                     
00007bcd  ti_sysbios_family_arm_cc26xx_Timer_getMaxTicks__E                         
1001c255  ti_sysbios_family_arm_cc26xx_Timer_getPeriod__E                           
0000731d  ti_sysbios_family_arm_cc26xx_Timer_initDevice__I                          
1001a469  ti_sysbios_family_arm_cc26xx_Timer_periodicStub__E                        
1001b769  ti_sysbios_family_arm_cc26xx_Timer_postInit__I                            
0000744b  ti_sysbios_family_arm_cc26xx_Timer_setNextTick__E                         
1001c259  ti_sysbios_family_arm_cc26xx_Timer_setPeriod__E                           
0000768d  ti_sysbios_family_arm_cc26xx_Timer_setThreshold__I                        
0000575d  ti_sysbios_family_arm_cc26xx_Timer_start__E                               
00000484  ti_sysbios_family_arm_cc26xx_Timer_startupNeeded__C                       
1001b795  ti_sysbios_family_arm_cc26xx_Timer_startup__E                             
200001ec  ti_sysbios_family_arm_cc26xx_TimestampProvider_Module__state__V           
1001bb69  ti_sysbios_family_arm_cc26xx_TimestampProvider_Module_startup__E          
00008403  ti_sysbios_family_arm_cc26xx_TimestampProvider_get32__E                   
1001b9d1  ti_sysbios_family_arm_cc26xx_TimestampProvider_get64__E                   
1001c12f  ti_sysbios_family_arm_cc26xx_TimestampProvider_getFreq__E                 
00000504  ti_sysbios_family_arm_cc26xx_TimestampProvider_useClockTimer__C           
00000488  ti_sysbios_family_arm_m3_Hwi_E_alreadyDefined__C                          
0000048c  ti_sysbios_family_arm_m3_Hwi_E_hwiLimitExceeded__C                        
1001aed1  ti_sysbios_family_arm_m3_Hwi_Instance_finalize__E                         
1001a3c9  ti_sysbios_family_arm_m3_Hwi_Instance_init__E                             
200012ee  ti_sysbios_family_arm_m3_Hwi_Module_State_0_excActive__A                  
20001398  ti_sysbios_family_arm_m3_Hwi_Module_State_0_excContext__A                 
2000139c  ti_sysbios_family_arm_m3_Hwi_Module_State_0_excStack__A                   
00000506  ti_sysbios_family_arm_m3_Hwi_Module__id__C                                
20001324  ti_sysbios_family_arm_m3_Hwi_Module__root__V                              
1001bb89  ti_sysbios_family_arm_m3_Hwi_Module__startupDone__S                       
20000144  ti_sysbios_family_arm_m3_Hwi_Module__state__V                             
1001b1c1  ti_sysbios_family_arm_m3_Hwi_Module_startup__E                            
00000490  ti_sysbios_family_arm_m3_Hwi_NUM_INTERRUPTS__C                            
000002d0  ti_sysbios_family_arm_m3_Hwi_Object__DESC__C                              
00000170  ti_sysbios_family_arm_m3_Hwi_Object__PARAMS__C                            
00000494  ti_sysbios_family_arm_m3_Hwi_Object__count__C                             
1001aab1  ti_sysbios_family_arm_m3_Hwi_Object__create__S                            
1001bba9  ti_sysbios_family_arm_m3_Hwi_Object__delete__S                            
1001be69  ti_sysbios_family_arm_m3_Hwi_Object__destruct__S                          
1001b7c1  ti_sysbios_family_arm_m3_Hwi_Object__get__S                               
00000498  ti_sysbios_family_arm_m3_Hwi_Object__table__C                             
20001268  ti_sysbios_family_arm_m3_Hwi_Object__table__V                             
1001c13d  ti_sysbios_family_arm_m3_Hwi_Params__init__S                              
0000049c  ti_sysbios_family_arm_m3_Hwi_ccr__C                                       
1001af29  ti_sysbios_family_arm_m3_Hwi_construct                                    
1001ab15  ti_sysbios_family_arm_m3_Hwi_create                                       
1001c25d  ti_sysbios_family_arm_m3_Hwi_delete                                       
1001c261  ti_sysbios_family_arm_m3_Hwi_destruct                                     
1001c149  ti_sysbios_family_arm_m3_Hwi_disableFxn__E                                
1001b299  ti_sysbios_family_arm_m3_Hwi_disableInterrupt__E                          
1001aa49  ti_sysbios_family_arm_m3_Hwi_dispatchC__I                                 
20001e64  ti_sysbios_family_arm_m3_Hwi_dispatchTable                                
1001c89d  ti_sysbios_family_arm_m3_Hwi_dispatch__I                                  
1001c1fb  ti_sysbios_family_arm_m3_Hwi_doSwiRestore__I                              
1001c213  ti_sysbios_family_arm_m3_Hwi_doTaskRestore__I                             
1001c155  ti_sysbios_family_arm_m3_Hwi_enableFxn__E                                 
1001b2dd  ti_sysbios_family_arm_m3_Hwi_enableInterrupt__E                           
1001ca01  ti_sysbios_family_arm_m3_Hwi_excHandlerAsm__I                             
000004a0  ti_sysbios_family_arm_m3_Hwi_excHandlerFunc__C                            
1001bbc9  ti_sysbios_family_arm_m3_Hwi_excHandler__I                                
1001b465  ti_sysbios_family_arm_m3_Hwi_getStackInfo__E                              
1001a699  ti_sysbios_family_arm_m3_Hwi_initNVIC__E                                  
1001c9b9  ti_sysbios_family_arm_m3_Hwi_initStacks__E                                
000004a4  ti_sysbios_family_arm_m3_Hwi_nullIsrFunc__C                               
000004a8  ti_sysbios_family_arm_m3_Hwi_numSparseInterrupts__C                       
e000e000  ti_sysbios_family_arm_m3_Hwi_nvic                                         
1001ca3f  ti_sysbios_family_arm_m3_Hwi_pendSV__I                                    
1001c065  ti_sysbios_family_arm_m3_Hwi_plug__E                                      
1001a319  ti_sysbios_family_arm_m3_Hwi_postInit__I                                  
000082e1  ti_sysbios_family_arm_m3_Hwi_post__E                                      
000004ac  ti_sysbios_family_arm_m3_Hwi_priGroup__C                                  
20000000  ti_sysbios_family_arm_m3_Hwi_ramVectors                                   
00000000  ti_sysbios_family_arm_m3_Hwi_resetVectors                                 
1001c219  ti_sysbios_family_arm_m3_Hwi_restoreFxn__E                                
1001ca57  ti_sysbios_family_arm_m3_Hwi_return                                       
000085c7  ti_sysbios_family_arm_m3_Hwi_setFunc__E                                   
1001be85  ti_sysbios_family_arm_m3_Hwi_setPriority__E                               
1001c203  ti_sysbios_family_arm_m3_Hwi_startup__E                                   
1001c00d  ti_sysbios_family_arm_m3_Hwi_switchFromBootStack__E                       
1001c265  ti_sysbios_family_arm_m3_TaskSupport_Module__startupDone__S               
1001c96d  ti_sysbios_family_arm_m3_TaskSupport_buildTaskStack                       
1001c161  ti_sysbios_family_arm_m3_TaskSupport_getStackAlignment__E                 
1001ca59  ti_sysbios_family_arm_m3_TaskSupport_glue                                 
000004b0  ti_sysbios_family_arm_m3_TaskSupport_stackAlignment__C                    
1001b49d  ti_sysbios_family_arm_m3_TaskSupport_start__E                             
1001ca69  ti_sysbios_family_arm_m3_TaskSupport_swap__E                              
1001ca21  ti_sysbios_family_xxx_Hwi_switchAndRunFunc                                
1001bbe9  ti_sysbios_gates_GateHwi_Handle__label__S                                 
1001b463  ti_sysbios_gates_GateHwi_Instance_init__E                                 
0000021c  ti_sysbios_gates_GateHwi_Module__FXNS__C                                  
00000508  ti_sysbios_gates_GateHwi_Module__id__C                                    
2000132c  ti_sysbios_gates_GateHwi_Module__root__V                                  
000002f0  ti_sysbios_gates_GateHwi_Object__DESC__C                                  
00000430  ti_sysbios_gates_GateHwi_Object__PARAMS__C                                
1001ba95  ti_sysbios_gates_GateHwi_Object__create__S                                
1001bc09  ti_sysbios_gates_GateHwi_Object__delete__S                                
1001c16d  ti_sysbios_gates_GateHwi_enter__E                                         
1001c21f  ti_sysbios_gates_GateHwi_leave__E                                         
1001c269  ti_sysbios_gates_GateHwi_query__E                                         
1001bc29  ti_sysbios_gates_GateMutex_Handle__label__S                               
000005cc  ti_sysbios_gates_GateMutex_Instance_State_sem__O                          
1001c075  ti_sysbios_gates_GateMutex_Instance_finalize__E                           
1001bea1  ti_sysbios_gates_GateMutex_Instance_init__E                               
00000240  ti_sysbios_gates_GateMutex_Module__FXNS__C                                
0000050a  ti_sysbios_gates_GateMutex_Module__id__C                                  
20001334  ti_sysbios_gates_GateMutex_Module__root__V                                
00000310  ti_sysbios_gates_GateMutex_Object__DESC__C                                
00000448  ti_sysbios_gates_GateMutex_Object__PARAMS__C                              
1001b649  ti_sysbios_gates_GateMutex_Object__create__S                              
1001bab9  ti_sysbios_gates_GateMutex_Object__delete__S                              
1001bc49  ti_sysbios_gates_GateMutex_Object__destruct__S                            
20001150  ti_sysbios_gates_GateMutex_Object__table__V                               
1001c179  ti_sysbios_gates_GateMutex_Params__init__S                                
1001b7ed  ti_sysbios_gates_GateMutex_construct                                      
1001b679  ti_sysbios_gates_GateMutex_create                                         
1001c26d  ti_sysbios_gates_GateMutex_delete                                         
1001c271  ti_sysbios_gates_GateMutex_destruct                                       
1001b6a9  ti_sysbios_gates_GateMutex_enter__E                                       
1001bf9d  ti_sysbios_gates_GateMutex_leave__E                                       
1001c275  ti_sysbios_gates_GateMutex_query__E                                       
1001c279  ti_sysbios_hal_Hwi_HwiProxy_Module__startupDone__S                        
UNDEFED   ti_sysbios_hal_Hwi_HwiProxy_Module__startupDone__S__mangled__             
1001c085  ti_sysbios_hal_Hwi_HwiProxy_Object__create__S                             
1001bba9  ti_sysbios_hal_Hwi_HwiProxy_Object__delete__S                             
UNDEFED   ti_sysbios_hal_Hwi_HwiProxy_Object__delete__S__mangled__                  
1001c13d  ti_sysbios_hal_Hwi_HwiProxy_Params__init__S                               
UNDEFED   ti_sysbios_hal_Hwi_HwiProxy_Params__init__S__mangled__                    
1001be49  ti_sysbios_hal_Hwi_HwiProxy_create                                        
1001c27d  ti_sysbios_hal_Hwi_HwiProxy_delete                                        
1001c281  ti_sysbios_hal_Hwi_HwiProxy_disableInterrupt__E                           
UNDEFED   ti_sysbios_hal_Hwi_HwiProxy_disableInterrupt__E__mangled__                
1001c285  ti_sysbios_hal_Hwi_HwiProxy_enableInterrupt__E                            
UNDEFED   ti_sysbios_hal_Hwi_HwiProxy_enableInterrupt__E__mangled__                 
1001c289  ti_sysbios_hal_Hwi_HwiProxy_getStackInfo__E                               
UNDEFED   ti_sysbios_hal_Hwi_HwiProxy_getStackInfo__E__mangled__                    
000082e1  ti_sysbios_hal_Hwi_HwiProxy_post__E                                       
1001c28d  ti_sysbios_hal_Hwi_HwiProxy_startup__E                                    
UNDEFED   ti_sysbios_hal_Hwi_HwiProxy_startup__E__mangled__                         
1001c291  ti_sysbios_hal_Hwi_HwiProxy_switchFromBootStack__E                        
UNDEFED   ti_sysbios_hal_Hwi_HwiProxy_switchFromBootStack__E__mangled__             
1001c1f1  ti_sysbios_hal_Hwi_Instance_finalize__E                                   
1001b9f9  ti_sysbios_hal_Hwi_Instance_init__E                                       
2000133c  ti_sysbios_hal_Hwi_Module__root__V                                        
1001c021  ti_sysbios_hal_Hwi_Module_startup__E                                      
00000330  ti_sysbios_hal_Hwi_Object__DESC__C                                        
000001a0  ti_sysbios_hal_Hwi_Object__PARAMS__C                                      
1001bc69  ti_sysbios_hal_Hwi_Object__delete__S                                      
000084b9  ti_sysbios_hal_Hwi_Params__init__S                                        
1001ab79  ti_sysbios_hal_Hwi_create                                                 
1001c295  ti_sysbios_hal_Hwi_delete                                                 
1001c281  ti_sysbios_hal_Hwi_disableInterrupt__E                                    
UNDEFED   ti_sysbios_hal_Hwi_disableInterrupt__E                                    
1001c285  ti_sysbios_hal_Hwi_enableInterrupt__E                                     
UNDEFED   ti_sysbios_hal_Hwi_enableInterrupt__E                                     
1001c289  ti_sysbios_hal_Hwi_getStackInfo__E                                        
UNDEFED   ti_sysbios_hal_Hwi_getStackInfo__E                                        
1001b819  ti_sysbios_hal_Hwi_initStack                                              
000082e1  ti_sysbios_hal_Hwi_post__E                                                
1001c28d  ti_sysbios_hal_Hwi_startup__E                                             
UNDEFED   ti_sysbios_hal_Hwi_startup__E                                             
1001c299  ti_sysbios_hal_Hwi_switchFromBootStack__E                                 
UNDEFED   ti_sysbios_hal_Hwi_switchFromBootStack__E                                 
000004b4  ti_sysbios_heaps_HeapMem_E_memory__C                                      
1001bc89  ti_sysbios_heaps_HeapMem_Handle__label__S                                 
200013a8  ti_sysbios_heaps_HeapMem_Instance_State_0_buf__A                          
1001b4d5  ti_sysbios_heaps_HeapMem_Instance_init__E                                 
1001bc29  ti_sysbios_heaps_HeapMem_Module_GateProxy_Handle__label__S                
UNDEFED   ti_sysbios_heaps_HeapMem_Module_GateProxy_Handle__label__S__mangled__     
1001bab9  ti_sysbios_heaps_HeapMem_Module_GateProxy_Object__delete__S               
UNDEFED   ti_sysbios_heaps_HeapMem_Module_GateProxy_Object__delete__S__mangled__    
1001c179  ti_sysbios_heaps_HeapMem_Module_GateProxy_Params__init__S                 
UNDEFED   ti_sysbios_heaps_HeapMem_Module_GateProxy_Params__init__S__mangled__      
1001c29d  ti_sysbios_heaps_HeapMem_Module_GateProxy_enter__E                        
1001c2a1  ti_sysbios_heaps_HeapMem_Module_GateProxy_leave__E                        
1001c275  ti_sysbios_heaps_HeapMem_Module_GateProxy_query__E                        
UNDEFED   ti_sysbios_heaps_HeapMem_Module_GateProxy_query__E__mangled__             
000001cc  ti_sysbios_heaps_HeapMem_Module__FXNS__C                                  
000004b8  ti_sysbios_heaps_HeapMem_Module__gateObj__C                               
0000050c  ti_sysbios_heaps_HeapMem_Module__id__C                                    
20001344  ti_sysbios_heaps_HeapMem_Module__root__V                                  
00000350  ti_sysbios_heaps_HeapMem_Object__DESC__C                                  
00000264  ti_sysbios_heaps_HeapMem_Object__PARAMS__C                                
000004bc  ti_sysbios_heaps_HeapMem_Object__count__C                                 
1001b845  ti_sysbios_heaps_HeapMem_Object__create__S                                
1001bca9  ti_sysbios_heaps_HeapMem_Object__delete__S                                
1001b871  ti_sysbios_heaps_HeapMem_Object__get__S                                   
000004c0  ti_sysbios_heaps_HeapMem_Object__table__C                                 
20001280  ti_sysbios_heaps_HeapMem_Object__table__V                                 
1001a199  ti_sysbios_heaps_HeapMem_alloc__E                                         
1001a795  ti_sysbios_heaps_HeapMem_free__E                                          
1001b209  ti_sysbios_heaps_HeapMem_getStats__E                                      
1001b545  ti_sysbios_heaps_HeapMem_init__I                                          
1001c2a5  ti_sysbios_heaps_HeapMem_isBlocking__E                                    
000004c4  ti_sysbios_heaps_HeapMem_reqAlign__C                                      
1001c105  ti_sysbios_heaps_HeapMem_restore__E                                       
1001bfcd  ti_sysbios_knl_Clock_Instance_finalize__E                                 
1001b50d  ti_sysbios_knl_Clock_Instance_init__E                                     
000005d0  ti_sysbios_knl_Clock_Module_State_clockQ__O                               
2000134c  ti_sysbios_knl_Clock_Module__root__V                                      
20000178  ti_sysbios_knl_Clock_Module__state__V                                     
1001bcc9  ti_sysbios_knl_Clock_Module_startup__E                                    
00000370  ti_sysbios_knl_Clock_Object__DESC__C                                      
00000288  ti_sysbios_knl_Clock_Object__PARAMS__C                                    
1001badd  ti_sysbios_knl_Clock_Object__delete__S                                    
1001bce9  ti_sysbios_knl_Clock_Object__destruct__S                                  
20001248  ti_sysbios_knl_Clock_Object__table__V                                     
1001c185  ti_sysbios_knl_Clock_Params__init__S                                      
1001c2a9  ti_sysbios_knl_Clock_TimerProxy_Module__startupDone__S                    
UNDEFED   ti_sysbios_knl_Clock_TimerProxy_Module__startupDone__S__mangled__         
1001c095  ti_sysbios_knl_Clock_TimerProxy_getCurrentTick__E                         
1001c2ad  ti_sysbios_knl_Clock_TimerProxy_getExpiredTicks__E                        
1001c0a5  ti_sysbios_knl_Clock_TimerProxy_getMaxTicks__E                            
1001c2b1  ti_sysbios_knl_Clock_TimerProxy_getPeriod__E                              
1001c0b5  ti_sysbios_knl_Clock_TimerProxy_setNextTick__E                            
1001b795  ti_sysbios_knl_Clock_TimerProxy_startup__E                                
UNDEFED   ti_sysbios_knl_Clock_TimerProxy_startup__E__mangled__                     
1001ba21  ti_sysbios_knl_Clock_addI__E                                              
1001b579  ti_sysbios_knl_Clock_construct                                            
1001b3ed  ti_sysbios_knl_Clock_create                                               
1001c2b5  ti_sysbios_knl_Clock_delete                                               
1001c2b9  ti_sysbios_knl_Clock_destruct                                             
00008245  ti_sysbios_knl_Clock_doTick__I                                            
0000792d  ti_sysbios_knl_Clock_getTicksUntilInterrupt__E                            
1001b6d9  ti_sysbios_knl_Clock_getTicks__E                                          
1001c191  ti_sysbios_knl_Clock_getTimerHandle__E                                    
000085e9  ti_sysbios_knl_Clock_isActive__E                                          
1001be67  ti_sysbios_knl_Clock_logTick__E                                           
1001c2bd  ti_sysbios_knl_Clock_removeI__E                                           
1001bebd  ti_sysbios_knl_Clock_scheduleNextTick__E                                  
000004c8  ti_sysbios_knl_Clock_serviceMargin__C                                     
1001c2c1  ti_sysbios_knl_Clock_setTimeout__E                                        
1001a719  ti_sysbios_knl_Clock_startI__E                                            
1001bfe3  ti_sysbios_knl_Clock_start__E                                             
00007cf5  ti_sysbios_knl_Clock_stop__E                                              
00000510  ti_sysbios_knl_Clock_tickMode__C                                          
00008bcc  ti_sysbios_knl_Clock_tickPeriod__C                                        
00008bd0  ti_sysbios_knl_Clock_triggerClock__C                                      
00006b47  ti_sysbios_knl_Clock_triggerFunc__I                                       
1001a80d  ti_sysbios_knl_Clock_walkQueueDynamic__E                                  
00004cad  ti_sysbios_knl_Clock_workFuncDynamic__E                                   
1001a885  ti_sysbios_knl_Clock_workFunc__E                                          
00008bd4  ti_sysbios_knl_Idle_funcList__A                                           
00000478  ti_sysbios_knl_Idle_funcList__C                                           
1001c20b  ti_sysbios_knl_Idle_loop__E                                               
1001bd09  ti_sysbios_knl_Idle_run__E                                                
000005d4  ti_sysbios_knl_Mailbox_Instance_State_dataQue__O                          
000005d8  ti_sysbios_knl_Mailbox_Instance_State_dataSem__O                          
000005dc  ti_sysbios_knl_Mailbox_Instance_State_freeQue__O                          
000005e0  ti_sysbios_knl_Mailbox_Instance_State_freeSem__O                          
1001a9dd  ti_sysbios_knl_Mailbox_Instance_finalize__E                               
1001a001  ti_sysbios_knl_Mailbox_Instance_init__E                                   
20001354  ti_sysbios_knl_Mailbox_Module__root__V                                    
1001b251  ti_sysbios_knl_Mailbox_Module_startup__E                                  
00000390  ti_sysbios_knl_Mailbox_Object__DESC__C                                    
0000013c  ti_sysbios_knl_Mailbox_Object__PARAMS__C                                  
000004cc  ti_sysbios_knl_Mailbox_Object__count__C                                   
1001bd29  ti_sysbios_knl_Mailbox_Object__delete__S                                  
1001bed9  ti_sysbios_knl_Mailbox_Object__destruct__S                                
1001b89d  ti_sysbios_knl_Mailbox_Object__get__S                                     
000004d0  ti_sysbios_knl_Mailbox_Object__table__C                                   
1001c19d  ti_sysbios_knl_Mailbox_Params__init__S                                    
1001af81  ti_sysbios_knl_Mailbox_construct                                          
1001abdd  ti_sysbios_knl_Mailbox_create                                             
1001c2c5  ti_sysbios_knl_Mailbox_delete                                             
1001c2c9  ti_sysbios_knl_Mailbox_destruct                                           
1001a8fd  ti_sysbios_knl_Mailbox_pend__E                                            
1001b8c9  ti_sysbios_knl_Mailbox_postInit__I                                        
1001a591  ti_sysbios_knl_Mailbox_post__E                                            
1001c22b  ti_sysbios_knl_Queue_Instance_init__E                                     
2000135c  ti_sysbios_knl_Queue_Module__root__V                                      
000003b0  ti_sysbios_knl_Queue_Object__DESC__C                                      
00000460  ti_sysbios_knl_Queue_Object__PARAMS__C                                    
000004d4  ti_sysbios_knl_Queue_Object__count__C                                     
1001bd49  ti_sysbios_knl_Queue_Object__delete__S                                    
1001bef5  ti_sysbios_knl_Queue_Object__destruct__S                                  
1001bd69  ti_sysbios_knl_Queue_Object__get__S                                       
000004d8  ti_sysbios_knl_Queue_Object__table__C                                     
1001b8f5  ti_sysbios_knl_Queue_construct                                            
1001b921  ti_sysbios_knl_Queue_create                                               
1001c2cd  ti_sysbios_knl_Queue_delete                                               
1001c1a9  ti_sysbios_knl_Queue_dequeue__E                                           
1001c2d1  ti_sysbios_knl_Queue_destruct                                             
1001c231  ti_sysbios_knl_Queue_elemClear__E                                         
1001c113  ti_sysbios_knl_Queue_empty__E                                             
1001c1b5  ti_sysbios_knl_Queue_enqueue__E                                           
1001bf11  ti_sysbios_knl_Queue_get__E                                               
1001c2d5  ti_sysbios_knl_Queue_head__E                                              
1001c2d9  ti_sysbios_knl_Queue_next__E                                              
1001bf2d  ti_sysbios_knl_Queue_put__E                                               
1001c121  ti_sysbios_knl_Queue_remove__E                                            
000005e4  ti_sysbios_knl_Semaphore_Instance_State_pendQ__O                          
1001c0c5  ti_sysbios_knl_Semaphore_Instance_finalize__E                             
1001bb01  ti_sysbios_knl_Semaphore_Instance_init__E                                 
20001364  ti_sysbios_knl_Semaphore_Module__root__V                                  
000003d0  ti_sysbios_knl_Semaphore_Object__DESC__C                                  
000002ac  ti_sysbios_knl_Semaphore_Object__PARAMS__C                                
1001bb25  ti_sysbios_knl_Semaphore_Object__delete__S                                
1001bd89  ti_sysbios_knl_Semaphore_Object__destruct__S                              
1001c1c1  ti_sysbios_knl_Semaphore_Params__init__S                                  
1001b709  ti_sysbios_knl_Semaphore_construct                                        
1001b5ad  ti_sysbios_knl_Semaphore_create                                           
1001c2dd  ti_sysbios_knl_Semaphore_delete                                           
1001c2e1  ti_sysbios_knl_Semaphore_destruct                                         
1001b94d  ti_sysbios_knl_Semaphore_pendTimeout__I                                   
1001a0cd  ti_sysbios_knl_Semaphore_pend__E                                          
1001ac41  ti_sysbios_knl_Semaphore_post__E                                          
1001bf9b  ti_sysbios_knl_Swi_Instance_finalize__E                                   
1001aca5  ti_sysbios_knl_Swi_Instance_init__E                                       
20001188  ti_sysbios_knl_Swi_Module_State_0_readyQ__A                               
2000136c  ti_sysbios_knl_Swi_Module__root__V                                        
200001c8  ti_sysbios_knl_Swi_Module__state__V                                       
1001c237  ti_sysbios_knl_Swi_Module_startup__E                                      
000003f0  ti_sysbios_knl_Swi_Object__DESC__C                                        
000001f4  ti_sysbios_knl_Swi_Object__PARAMS__C                                      
000004dc  ti_sysbios_knl_Swi_Object__count__C                                       
1001bda9  ti_sysbios_knl_Swi_Object__delete__S                                      
1001bf49  ti_sysbios_knl_Swi_Object__destruct__S                                    
1001b979  ti_sysbios_knl_Swi_Object__get__S                                         
000004e0  ti_sysbios_knl_Swi_Object__table__C                                       
200011b8  ti_sysbios_knl_Swi_Object__table__V                                       
1001c1cd  ti_sysbios_knl_Swi_Params__init__S                                        
1001b085  ti_sysbios_knl_Swi_construct                                              
1001ad05  ti_sysbios_knl_Swi_create                                                 
1001c2e5  ti_sysbios_knl_Swi_delete                                                 
1001c2e9  ti_sysbios_knl_Swi_destruct                                               
1001c0d5  ti_sysbios_knl_Swi_disable__E                                             
1001c0e5  ti_sysbios_knl_Swi_enabled__E                                             
000084c5  ti_sysbios_knl_Swi_getTrigger__E                                          
000004e4  ti_sysbios_knl_Swi_numPriorities__C                                       
00008109  ti_sysbios_knl_Swi_or__E                                                  
1001c2ed  ti_sysbios_knl_Swi_postInit__I                                            
1001b321  ti_sysbios_knl_Swi_post__E                                                
1001ad61  ti_sysbios_knl_Swi_restoreHwi__E                                          
1001b5e1  ti_sysbios_knl_Swi_restore__E                                             
1001b0d5  ti_sysbios_knl_Swi_runLoop__I                                             
1001afd9  ti_sysbios_knl_Swi_run__I                                                 
1001b031  ti_sysbios_knl_Swi_schedule__I                                            
1001c23d  ti_sysbios_knl_Swi_startup__E                                             
20001a28  ti_sysbios_knl_Task_Instance_State_0_stack__A                             
1001a4fd  ti_sysbios_knl_Task_Instance_finalize__E                                  
1001a25d  ti_sysbios_knl_Task_Instance_init__E                                      
200013a0  ti_sysbios_knl_Task_Module_State_0_idleTask__A                            
200011e8  ti_sysbios_knl_Task_Module_State_0_readyQ__A                              
000005e8  ti_sysbios_knl_Task_Module_State_inactiveQ__O                             
20001374  ti_sysbios_knl_Task_Module__root__V                                       
20000100  ti_sysbios_knl_Task_Module__state__V                                      
1001adbd  ti_sysbios_knl_Task_Module_startup__E                                     
00000410  ti_sysbios_knl_Task_Object__DESC__C                                       
00000100  ti_sysbios_knl_Task_Object__PARAMS__C                                     
000004e8  ti_sysbios_knl_Task_Object__count__C                                      
1001bdc9  ti_sysbios_knl_Task_Object__delete__S                                     
1001bf65  ti_sysbios_knl_Task_Object__destruct__S                                   
1001bde9  ti_sysbios_knl_Task_Object__get__S                                        
000004ec  ti_sysbios_knl_Task_Object__table__C                                      
20001074  ti_sysbios_knl_Task_Object__table__V                                      
1001c1d9  ti_sysbios_knl_Task_Params__init__S                                       
1001c2f1  ti_sysbios_knl_Task_SupportProxy_Module__startupDone__S                   
UNDEFED   ti_sysbios_knl_Task_SupportProxy_Module__startupDone__S__mangled__        
1001c2f5  ti_sysbios_knl_Task_SupportProxy_getStackAlignment__E                     
UNDEFED   ti_sysbios_knl_Task_SupportProxy_getStackAlignment__E__mangled__          
1001c2f9  ti_sysbios_knl_Task_SupportProxy_start__E                                 
UNDEFED   ti_sysbios_knl_Task_SupportProxy_start__E__mangled__                      
1001c2fd  ti_sysbios_knl_Task_SupportProxy_swap__E                                  
UNDEFED   ti_sysbios_knl_Task_SupportProxy_swap__E__mangled__                       
000004f0  ti_sysbios_knl_Task_allBlockedFunc__C                                     
1001b365  ti_sysbios_knl_Task_allBlockedFunction__I                                 
1001b615  ti_sysbios_knl_Task_blockI__E                                             
1001b125  ti_sysbios_knl_Task_construct                                             
1001ae19  ti_sysbios_knl_Task_create                                                
000004f4  ti_sysbios_knl_Task_defaultStackHeap__C                                   
000004f8  ti_sysbios_knl_Task_defaultStackSize__C                                   
1001c301  ti_sysbios_knl_Task_delete                                                
1001c305  ti_sysbios_knl_Task_destruct                                              
1001c0f5  ti_sysbios_knl_Task_disable__E                                            
1001c243  ti_sysbios_knl_Task_enable__E                                             
1001be09  ti_sysbios_knl_Task_enter__I                                              
1001b429  ti_sysbios_knl_Task_exit__E                                               
0000050e  ti_sysbios_knl_Task_initStackFlag__C                                      
000004fc  ti_sysbios_knl_Task_numConstructedTasks__C                                
1001a615  ti_sysbios_knl_Task_postInit__I                                           
1001b739  ti_sysbios_knl_Task_processVitalTaskFlag__I                               
1001be29  ti_sysbios_knl_Task_restoreHwi__E                                         
1001ba49  ti_sysbios_knl_Task_restore__E                                            
1001b175  ti_sysbios_knl_Task_schedule__I                                           
1001c1e5  ti_sysbios_knl_Task_self__E                                               
1001bf81  ti_sysbios_knl_Task_sleepTimeout__I                                       
1001a96d  ti_sysbios_knl_Task_sleep__E                                              
1001ae75  ti_sysbios_knl_Task_startCore__E                                          
1001c309  ti_sysbios_knl_Task_startup__E                                            
1001ca71  ti_sysbios_knl_Task_swapReturn                                            
1001b9a5  ti_sysbios_knl_Task_unblockI__E                                           
1001bfb5  ti_sysbios_knl_Task_unblock__E                                            
1001b3a9  ti_sysbios_knl_Task_yield__E                                              
00000590  ti_sysbios_rom_ROM_AONRTCChannelEnable                                    
00000594  ti_sysbios_rom_ROM_AONRTCCompareValueSet                                  
00000598  ti_sysbios_rom_ROM_AONRTCCurrentCompareValueGet                           
0000059c  ti_sysbios_rom_ROM_AONRTCEventClear                                       
000005a0  ti_sysbios_rom_ROM_ti_sysbios_family_arm_cc26xx_Timer_getCount64__E       
000005a4  ti_sysbios_rom_ROM_ti_sysbios_family_arm_cc26xx_Timer_getCurrentTick__E   
000005a8  ti_sysbios_rom_ROM_ti_sysbios_family_arm_cc26xx_Timer_getMaxTicks__E      
000005ac  ti_sysbios_rom_ROM_ti_sysbios_family_arm_cc26xx_Timer_initDevice__I       
000005b0  ti_sysbios_rom_ROM_ti_sysbios_family_arm_cc26xx_Timer_setNextTick__E      
000005b4  ti_sysbios_rom_ROM_ti_sysbios_family_arm_cc26xx_Timer_setThreshold__I     
000005b8  ti_sysbios_rom_ROM_ti_sysbios_family_arm_cc26xx_Timer_start__E            
000005bc  ti_sysbios_rom_ROM_ti_sysbios_family_arm_cc26xx_TimestampProvider_get32__E
000005c0  ti_sysbios_rom_ROM_xdc_runtime_Startup_getState__I                        
000005c4  ti_sysbios_rom_ROM_xdc_runtime_System_SupportProxy_abort__E               
000005c8  ti_sysbios_rom_ROM_xdc_runtime_System_SupportProxy_exit__E                
00006fdb  ti_sysbios_rom_cortexm_cc26xx_CC26xx_badRomRevision__E                    
00008121  ti_sysbios_rom_cortexm_cc26xx_CC26xx_checkRevision__E                     
1001ca9b  ti_sysbios_rom_cortexm_cc26xx_CC26xx_getRevision__E                       
20002000  trngCC26XXObjects                                                         
00008b90  trngDriverTable                                                           
00008a30  txPowerTable                                                              
00008bb8  txPwrTbl                                                                  
00008aa0  uartCC26XXHWAttrs                                                         
20001c28  uartCC26XXObjects                                                         
20001218  user0Cfg                                                                  
000089d4  validRangeUUID                                                            
00000524  xdc_runtime_Assert_E_assertFailed__C                                      
1001c5a9  xdc_runtime_Assert_raise__I                                               
1001c6ed  xdc_runtime_Core_assignLabel__I                                           
1001c5f1  xdc_runtime_Core_assignParams__I                                          
1001c639  xdc_runtime_Core_constructObject__I                                       
1001c405  xdc_runtime_Core_createObject__I                                          
1001c4f9  xdc_runtime_Core_deleteObject__I                                          
1001c7a1  xdc_runtime_Core_destructObject__I                                        
00000528  xdc_runtime_Error_E_memory__C                                             
1001c7b9  xdc_runtime_Error_check__E                                                
1001c841  xdc_runtime_Error_init__E                                                 
0000052c  xdc_runtime_Error_policyFxn__C                                            
1001c487  xdc_runtime_Error_policySpin__E                                           
0000058c  xdc_runtime_Error_policy__C                                               
1001c769  xdc_runtime_Error_raiseX__E                                               
1001c885  xdc_runtime_Gate_enterSystem__E                                           
1001c879  xdc_runtime_Gate_leaveSystem__E                                           
00000530  xdc_runtime_IGateProvider_Interface__BASE__C                              
00000534  xdc_runtime_IHeap_Interface__BASE__C                                      
00000538  xdc_runtime_IModule_Interface__BASE__C                                    
UNDEFED   xdc_runtime_Main_Module_GateProxy_Handle__label__S                        
UNDEFED   xdc_runtime_Main_Module_GateProxy_Object__delete__S                       
UNDEFED   xdc_runtime_Main_Module_GateProxy_query__E                                
0000053c  xdc_runtime_Main_Module__diagsEnabled__C                                  
00000540  xdc_runtime_Main_Module__diagsIncluded__C                                 
00000544  xdc_runtime_Main_Module__diagsMask__C                                     
00000584  xdc_runtime_Main_Module__id__C                                            
1001bc89  xdc_runtime_Memory_HeapProxy_Handle__label__S                             
UNDEFED   xdc_runtime_Memory_HeapProxy_Handle__label__S__mangled__                  
1001bca9  xdc_runtime_Memory_HeapProxy_Object__delete__S                            
UNDEFED   xdc_runtime_Memory_HeapProxy_Object__delete__S__mangled__                 
1001c889  xdc_runtime_Memory_HeapProxy_alloc__E                                     
1001c88d  xdc_runtime_Memory_HeapProxy_free__E                                      
00000586  xdc_runtime_Memory_Module__id__C                                          
20000200  xdc_runtime_Memory_Module__state__V                                       
1001c489  xdc_runtime_Memory_alloc__E                                               
1001c84d  xdc_runtime_Memory_calloc__E                                              
00000548  xdc_runtime_Memory_defaultHeapInstance__C                                 
1001c801  xdc_runtime_Memory_free__E                                                
1001c859  xdc_runtime_Memory_getMaxDefaultTypeAlign__E                              
1001c785  xdc_runtime_Memory_valloc__E                                              
2000137c  xdc_runtime_Registry_Module__state__V                                     
00007d15  xdc_runtime_Registry_findById__E                                          
200001f0  xdc_runtime_Startup_Module__state__V                                      
00000001  xdc_runtime_Startup__EXECFXN__C                                           
00000001  xdc_runtime_Startup__RESETFXN__C                                          
0000054c  xdc_runtime_Startup_execImpl__C                                           
1001c559  xdc_runtime_Startup_exec__E                                               
0000827d  xdc_runtime_Startup_exec__I                                               
00008b9c  xdc_runtime_Startup_firstFxns__A                                          
00000514  xdc_runtime_Startup_firstFxns__C                                          
00005f35  xdc_runtime_Startup_getState__I                                           
0000051c  xdc_runtime_Startup_lastFxns__C                                           
00000550  xdc_runtime_Startup_maxPasses__C                                          
000084d1  xdc_runtime_Startup_reset__I                                              
000084dd  xdc_runtime_Startup_rtsDone__E                                            
00008b34  xdc_runtime_Startup_sfxnRts__A                                            
00000554  xdc_runtime_Startup_sfxnRts__C                                            
00008a7c  xdc_runtime_Startup_sfxnTab__A                                            
00000558  xdc_runtime_Startup_sfxnTab__C                                            
0000055c  xdc_runtime_Startup_startModsFxn__C                                       
1001c30d  xdc_runtime_Startup_startMods__I                                          
00000560  xdc_runtime_SysCallback_abortFxn__C                                       
1001c811  xdc_runtime_SysCallback_abort__E                                          
000079d7  xdc_runtime_SysCallback_defaultAbort                                      
00007b3b  xdc_runtime_SysCallback_defaultExit                                       
00007c53  xdc_runtime_SysCallback_defaultPutch                                      
000085ed  xdc_runtime_SysCallback_defaultReady                                      
00000564  xdc_runtime_SysCallback_exitFxn__C                                        
1001c821  xdc_runtime_SysCallback_exit__E                                           
00008bd8  xdc_runtime_SysCallback_putchFxn__C                                       
00008301  xdc_runtime_SysCallback_putch__E                                          
00008bdc  xdc_runtime_SysCallback_readyFxn__C                                       
00008311  xdc_runtime_SysCallback_ready__E                                          
1001bbe9  xdc_runtime_System_Module_GateProxy_Handle__label__S                      
UNDEFED   xdc_runtime_System_Module_GateProxy_Handle__label__S__mangled__           
1001bc09  xdc_runtime_System_Module_GateProxy_Object__delete__S                     
UNDEFED   xdc_runtime_System_Module_GateProxy_Object__delete__S__mangled__          
1001c891  xdc_runtime_System_Module_GateProxy_enter__E                              
1001c895  xdc_runtime_System_Module_GateProxy_leave__E                              
1001c269  xdc_runtime_System_Module_GateProxy_query__E                              
UNDEFED   xdc_runtime_System_Module_GateProxy_query__E__mangled__                   
200001f8  xdc_runtime_System_Module__state__V                                       
1001c87f  xdc_runtime_System_Module_startup__E                                      
UNDEFED   xdc_runtime_System_SupportProxy_abort__E                                  
UNDEFED   xdc_runtime_System_SupportProxy_exit__E                                   
00008301  xdc_runtime_System_SupportProxy_putch__E                                  
00008311  xdc_runtime_System_SupportProxy_ready__E                                  
00000568  xdc_runtime_System_abortFxn__C                                            
1001c899  xdc_runtime_System_abortSpin__E                                           
00006249  xdc_runtime_System_abortStd__E                                            
1001c749  xdc_runtime_System_abort__E                                               
1001c681  xdc_runtime_System_atexit__E                                              
00001695  xdc_runtime_System_doPrint__I                                             
0000056c  xdc_runtime_System_exitFxn__C                                             
1001c89b  xdc_runtime_System_exitSpin__E                                            
00006251  xdc_runtime_System_exitStd__E                                             
1001c7d1  xdc_runtime_System_exit__E                                                
00008be0  xdc_runtime_System_extendFxn__C                                           
000057d1  xdc_runtime_System_formatNum__I                                           
00000570  xdc_runtime_System_maxAtexitHandlers__C                                   
00003e51  xdc_runtime_System_printfExtend__I                                        
1001c6b9  xdc_runtime_System_processAtExit__E                                       
000079ad  xdc_runtime_System_putchar__I                                             
00007ef5  xdc_runtime_System_snprintf__E                                            
000085f1  xdc_runtime_System_snprintf_va__F                                         
00008321  xdc_runtime_System_vsnprintf__E                                           
00000588  xdc_runtime_Text_charCnt__C                                               
00008b57  xdc_runtime_Text_charTab__A                                               
00000574  xdc_runtime_Text_charTab__C                                               
1001c71d  xdc_runtime_Text_cordText__E                                              
0000058a  xdc_runtime_Text_isLoaded__C                                              
00000578  xdc_runtime_Text_nameEmpty__C                                             
0000057c  xdc_runtime_Text_nameStatic__C                                            
00000580  xdc_runtime_Text_nameUnknown__C                                           
000076bd  xdc_runtime_Text_printVisFxn__I                                           
00005f91  xdc_runtime_Text_putLab__E                                                
00004e6d  xdc_runtime_Text_putMod__E                                                
00004a41  xdc_runtime_Text_putSite__E                                               
00008c08  xdc_runtime_Text_registryModsLastId__C                                    
1001c7e9  xdc_runtime_Text_ropeText__E                                              
00008c0a  xdc_runtime_Text_unnamedModsLastId__C                                     
00008be4  xdc_runtime_Text_visitRopeFxn__C                                          
00008547  xdc_runtime_Text_visitRope__I                                             
00006901  xdc_runtime_Text_xprintf__I                                               
1001c831  xdc_runtime_Timestamp_SupportProxy_get32__E                               
00008403  xdc_runtime_Timestamp_SupportProxy_get32__E__mangled__                    
1001b9d1  xdc_runtime_Timestamp_SupportProxy_get64__E                               
UNDEFED   xdc_runtime_Timestamp_SupportProxy_get64__E__mangled__                    
1001c12f  xdc_runtime_Timestamp_SupportProxy_getFreq__E                             
UNDEFED   xdc_runtime_Timestamp_SupportProxy_getFreq__E__mangled__                  
1001c831  xdc_runtime_Timestamp_get32__E                                            
UNDEFED   xdc_runtime_Timestamp_get32__E                                            
1001b9d1  xdc_runtime_Timestamp_get64__E                                            
UNDEFED   xdc_runtime_Timestamp_get64__E                                            
1001c12f  xdc_runtime_Timestamp_getFreq__E                                          
UNDEFED   xdc_runtime_Timestamp_getFreq__E                                          
10015d19  zADD                                                                      
10015eb5  zADD32                                                                    
10015de9  zMACC32                                                                   
10015f0d  zMULT32                                                                   
10015bcd  zSET                                                                      
10015d5d  zSUB                                                                      
10015e69  zSUB32                                                                    


GLOBAL SYMBOLS: SORTED BY Symbol Address 

address   name                                                                      
-------   ----                                                                      
00000000  __ASM__                                                                   
00000000  ti_sysbios_family_arm_m3_Hwi_resetVectors                                 
00000001  xdc_runtime_Startup__EXECFXN__C                                           
00000001  xdc_runtime_Startup__RESETFXN__C                                          
0000003d  SimpleProfile_SetParameter                                                
00000072  __ISA__                                                                   
00000084  __PLAT__                                                                  
000000ab  __TARG__                                                                  
000000d0  __TRDR__                                                                  
00000100  ti_sysbios_knl_Task_Object__PARAMS__C                                     
0000013c  ti_sysbios_knl_Mailbox_Object__PARAMS__C                                  
00000170  ti_sysbios_family_arm_m3_Hwi_Object__PARAMS__C                            
000001a0  ti_sysbios_hal_Hwi_Object__PARAMS__C                                      
000001cc  ti_sysbios_heaps_HeapMem_Module__FXNS__C                                  
000001f4  ti_sysbios_knl_Swi_Object__PARAMS__C                                      
0000021c  ti_sysbios_gates_GateHwi_Module__FXNS__C                                  
00000240  ti_sysbios_gates_GateMutex_Module__FXNS__C                                
00000264  ti_sysbios_heaps_HeapMem_Object__PARAMS__C                                
00000288  ti_sysbios_knl_Clock_Object__PARAMS__C                                    
000002ac  ti_sysbios_knl_Semaphore_Object__PARAMS__C                                
000002d0  ti_sysbios_family_arm_m3_Hwi_Object__DESC__C                              
000002f0  ti_sysbios_gates_GateHwi_Object__DESC__C                                  
00000310  ti_sysbios_gates_GateMutex_Object__DESC__C                                
00000330  ti_sysbios_hal_Hwi_Object__DESC__C                                        
00000350  ti_sysbios_heaps_HeapMem_Object__DESC__C                                  
00000370  ti_sysbios_knl_Clock_Object__DESC__C                                      
00000390  ti_sysbios_knl_Mailbox_Object__DESC__C                                    
000003b0  ti_sysbios_knl_Queue_Object__DESC__C                                      
000003d0  ti_sysbios_knl_Semaphore_Object__DESC__C                                  
000003f0  ti_sysbios_knl_Swi_Object__DESC__C                                        
00000400  __STACK_SIZE                                                              
00000410  ti_sysbios_knl_Task_Object__DESC__C                                       
00000430  ti_sysbios_gates_GateHwi_Object__PARAMS__C                                
00000448  ti_sysbios_gates_GateMutex_Object__PARAMS__C                              
00000460  ti_sysbios_knl_Queue_Object__PARAMS__C                                    
00000478  ti_sysbios_knl_Idle_funcList__C                                           
00000481  List_head                                                                 
00000484  ti_sysbios_family_arm_cc26xx_Timer_startupNeeded__C                       
00000488  ti_sysbios_family_arm_m3_Hwi_E_alreadyDefined__C                          
0000048c  ti_sysbios_family_arm_m3_Hwi_E_hwiLimitExceeded__C                        
00000490  ti_sysbios_family_arm_m3_Hwi_NUM_INTERRUPTS__C                            
00000494  ti_sysbios_family_arm_m3_Hwi_Object__count__C                             
00000498  ti_sysbios_family_arm_m3_Hwi_Object__table__C                             
0000049c  ti_sysbios_family_arm_m3_Hwi_ccr__C                                       
000004a0  ti_sysbios_family_arm_m3_Hwi_excHandlerFunc__C                            
000004a4  ti_sysbios_family_arm_m3_Hwi_nullIsrFunc__C                               
000004a8  ti_sysbios_family_arm_m3_Hwi_numSparseInterrupts__C                       
000004ac  ti_sysbios_family_arm_m3_Hwi_priGroup__C                                  
000004b0  ti_sysbios_family_arm_m3_TaskSupport_stackAlignment__C                    
000004b4  ti_sysbios_heaps_HeapMem_E_memory__C                                      
000004b8  ti_sysbios_heaps_HeapMem_Module__gateObj__C                               
000004bc  ti_sysbios_heaps_HeapMem_Object__count__C                                 
000004c0  ti_sysbios_heaps_HeapMem_Object__table__C                                 
000004c4  ti_sysbios_heaps_HeapMem_reqAlign__C                                      
000004c8  ti_sysbios_knl_Clock_serviceMargin__C                                     
000004cc  ti_sysbios_knl_Mailbox_Object__count__C                                   
000004d0  ti_sysbios_knl_Mailbox_Object__table__C                                   
000004d4  ti_sysbios_knl_Queue_Object__count__C                                     
000004d8  ti_sysbios_knl_Queue_Object__table__C                                     
000004dc  ti_sysbios_knl_Swi_Object__count__C                                       
000004e0  ti_sysbios_knl_Swi_Object__table__C                                       
000004e4  ti_sysbios_knl_Swi_numPriorities__C                                       
000004e8  ti_sysbios_knl_Task_Object__count__C                                      
000004ec  ti_sysbios_knl_Task_Object__table__C                                      
000004f0  ti_sysbios_knl_Task_allBlockedFunc__C                                     
000004f4  ti_sysbios_knl_Task_defaultStackHeap__C                                   
000004f8  ti_sysbios_knl_Task_defaultStackSize__C                                   
000004fc  ti_sysbios_knl_Task_numConstructedTasks__C                                
00000501  DefaultAssertCback                                                        
00000502  ti_sysbios_family_arm_cc26xx_Timer_Module__id__C                          
00000504  ti_sysbios_family_arm_cc26xx_TimestampProvider_useClockTimer__C           
00000506  ti_sysbios_family_arm_m3_Hwi_Module__id__C                                
00000508  ti_sysbios_gates_GateHwi_Module__id__C                                    
0000050a  ti_sysbios_gates_GateMutex_Module__id__C                                  
0000050c  ti_sysbios_heaps_HeapMem_Module__id__C                                    
0000050e  ti_sysbios_knl_Task_initStackFlag__C                                      
00000510  ti_sysbios_knl_Clock_tickMode__C                                          
00000514  xdc_runtime_Startup_firstFxns__C                                          
0000051c  xdc_runtime_Startup_lastFxns__C                                           
00000524  xdc_runtime_Assert_E_assertFailed__C                                      
00000528  xdc_runtime_Error_E_memory__C                                             
0000052c  xdc_runtime_Error_policyFxn__C                                            
00000530  xdc_runtime_IGateProvider_Interface__BASE__C                              
00000534  xdc_runtime_IHeap_Interface__BASE__C                                      
00000538  xdc_runtime_IModule_Interface__BASE__C                                    
0000053c  xdc_runtime_Main_Module__diagsEnabled__C                                  
00000540  xdc_runtime_Main_Module__diagsIncluded__C                                 
00000544  xdc_runtime_Main_Module__diagsMask__C                                     
00000548  xdc_runtime_Memory_defaultHeapInstance__C                                 
0000054c  xdc_runtime_Startup_execImpl__C                                           
00000550  xdc_runtime_Startup_maxPasses__C                                          
00000554  xdc_runtime_Startup_sfxnRts__C                                            
00000558  xdc_runtime_Startup_sfxnTab__C                                            
0000055c  xdc_runtime_Startup_startModsFxn__C                                       
00000560  xdc_runtime_SysCallback_abortFxn__C                                       
00000564  xdc_runtime_SysCallback_exitFxn__C                                        
00000568  xdc_runtime_System_abortFxn__C                                            
0000056c  xdc_runtime_System_exitFxn__C                                             
00000570  xdc_runtime_System_maxAtexitHandlers__C                                   
00000574  xdc_runtime_Text_charTab__C                                               
00000578  xdc_runtime_Text_nameEmpty__C                                             
0000057c  xdc_runtime_Text_nameStatic__C                                            
00000580  xdc_runtime_Text_nameUnknown__C                                           
00000584  xdc_runtime_Main_Module__id__C                                            
00000586  xdc_runtime_Memory_Module__id__C                                          
00000588  xdc_runtime_Text_charCnt__C                                               
0000058a  xdc_runtime_Text_isLoaded__C                                              
0000058c  xdc_runtime_Error_policy__C                                               
00000590  ti_sysbios_rom_ROM_AONRTCChannelEnable                                    
00000594  ti_sysbios_rom_ROM_AONRTCCompareValueSet                                  
00000598  ti_sysbios_rom_ROM_AONRTCCurrentCompareValueGet                           
0000059c  ti_sysbios_rom_ROM_AONRTCEventClear                                       
000005a0  ti_sysbios_rom_ROM_ti_sysbios_family_arm_cc26xx_Timer_getCount64__E       
000005a4  ti_sysbios_rom_ROM_ti_sysbios_family_arm_cc26xx_Timer_getCurrentTick__E   
000005a8  ti_sysbios_rom_ROM_ti_sysbios_family_arm_cc26xx_Timer_getMaxTicks__E      
000005ac  ti_sysbios_rom_ROM_ti_sysbios_family_arm_cc26xx_Timer_initDevice__I       
000005b0  ti_sysbios_rom_ROM_ti_sysbios_family_arm_cc26xx_Timer_setNextTick__E      
000005b4  ti_sysbios_rom_ROM_ti_sysbios_family_arm_cc26xx_Timer_setThreshold__I     
000005b8  ti_sysbios_rom_ROM_ti_sysbios_family_arm_cc26xx_Timer_start__E            
000005bc  ti_sysbios_rom_ROM_ti_sysbios_family_arm_cc26xx_TimestampProvider_get32__E
000005c0  ti_sysbios_rom_ROM_xdc_runtime_Startup_getState__I                        
000005c4  ti_sysbios_rom_ROM_xdc_runtime_System_SupportProxy_abort__E               
000005c8  ti_sysbios_rom_ROM_xdc_runtime_System_SupportProxy_exit__E                
000005cc  ti_sysbios_gates_GateMutex_Instance_State_sem__O                          
000005d0  ti_sysbios_knl_Clock_Module_State_clockQ__O                               
000005d4  ti_sysbios_knl_Mailbox_Instance_State_dataQue__O                          
000005d8  ti_sysbios_knl_Mailbox_Instance_State_dataSem__O                          
000005dc  ti_sysbios_knl_Mailbox_Instance_State_freeQue__O                          
000005e0  ti_sysbios_knl_Mailbox_Instance_State_freeSem__O                          
000005e4  ti_sysbios_knl_Semaphore_Instance_State_pendQ__O                          
000005e8  ti_sysbios_knl_Task_Module_State_inactiveQ__O                             
00001695  xdc_runtime_System_doPrint__I                                             
00001c51  GAPRole_SetParameter                                                      
000020c5  Power_sleep                                                               
000022ed  NOROM_SysCtrlSetRechargeBeforePowerDown                                   
000024f5  __aeabi_uldivmod                                                          
000028b9  PIN_init                                                                  
00002c41  RF_postCmd                                                                
00002de9  UARTCC26XX_open                                                           
00002f81  PowerCC26XX_doCalibrate                                                   
00003105  RF_cancelCmd                                                              
00003281  NOROM_SetupTrimDevice                                                     
00003281  ti_sysbios_family_arm_cc26xx_Boot_trimDevice                              
000033c9  AssertHandler                                                             
000034f5  GAPRole_GetParameter                                                      
00003615  Power_init                                                                
00003731  UARTCC26XX_read                                                           
00003955  UARTCC26XX_hwiIntFxn                                                      
00003b65  UARTCC26XX_write                                                          
00003e51  xdc_runtime_System_printfExtend__I                                        
00003f49  main                                                                      
000042d9  PowerCC26XX_standbyPolicy                                                 
000043ad  Power_releaseDependency                                                   
00004481  Power_setDependency                                                       
00004551  RF_open                                                                   
00004901  TRNGCC26XX_getNumber                                                      
000049a1  __TI_auto_init                                                            
00004a41  xdc_runtime_Text_putSite__E                                               
00004adf  __aeabi_memcpy                                                            
00004adf  __aeabi_memcpy4                                                           
00004adf  __aeabi_memcpy8                                                           
00004adf  memcpy                                                                    
00004b7b  DisplayUart_clear                                                         
00004b7d  PIN_open                                                                  
00004cad  ti_sysbios_knl_Clock_workFuncDynamic__E                                   
00004e6d  xdc_runtime_Text_putMod__E                                                
00004f91  UARTCC26XX_writeCancel                                                    
000050a9  NOROM_OSCHF_GetStartupTime                                                
000050a9  PowerCC26XX_getXoscStartupTime                                            
00005131  ICall_heapMalloc                                                          
00005235  DisplayUart_open                                                          
000052b1  RF_pendCmd                                                                
00005425  __aeabi_memclr                                                            
00005425  __aeabi_memclr4                                                           
00005425  __aeabi_memclr8                                                           
00005427  __aeabi_memset                                                            
00005427  __aeabi_memset4                                                           
00005427  __aeabi_memset8                                                           
0000542d  memset                                                                    
0000549f  DisplayUart_clearLines                                                    
00005519  ICallPlatform_pwrUpdActivityCounter                                       
00005601  PowerCC26XX_auxISR                                                        
00005675  UARTCC26XX_close                                                          
0000575d  ti_sysbios_family_arm_cc26xx_Timer_start__E                               
000057d1  xdc_runtime_System_formatNum__I                                           
00005841  Board_ledControl                                                          
000058ad  ICall_createRemoteTasks                                                   
00005919  PowerCC26XX_calibrate                                                     
00005985  NOROM_SysCtrl_DCDC_VoltageConditionalControl                              
000059ed  UARTCC26XX_readCancel                                                     
00005abd  __TI_decompress_lzss                                                      
00005be9  PowerCC26XX_RCOSC_clockFunc                                               
00005c49  UARTCC26XX_control                                                        
00005d09  DisplayUart_put5                                                          
00005dc5  NOROM_OSCHF_AttemptToSwitchToXosc                                         
00005e21  NOROM_SysCtrlAdjustRechargeAfterPowerDown                                 
00005f35  xdc_runtime_Startup_getState__I                                           
00005f91  xdc_runtime_Text_putLab__E                                                
00005fed  PIN_remove                                                                
00006045  PowerCC26XX_initiateCalibration                                           
0000609d  RF_getCurrentTime                                                         
00006245  C$$EXIT                                                                   
00006249  abort                                                                     
00006249  xdc_runtime_System_abortStd__E                                            
00006251  exit                                                                      
00006251  xdc_runtime_System_exitStd__E                                             
000062eb  __aeabi_idiv0                                                             
000062ed  GAP_UpdateAdvertisingData                                                 
0000638d  RF_getInfo                                                                
000063dd  Util_convertBdAddr2Str                                                    
00006515  NOROM_OSCClockSourceSet                                                   
00006561  copy_in                                                                   
000065f9  GAPRole_TerminateConnection                                               
00006641  NOROM_ChipInfo_GetChipFamily                                              
00006689  NOROM_DDI16BitfieldWrite                                                  
000066d1  Util_constructClock                                                       
000067a9  RingBuf_put                                                               
000067ef  ti_sysbios_BIOS_linkedWithIncorrectBootLibrary__E                         
00006835  SimpleProfile_GetParameter                                                
00006879  ResetISR                                                                  
00006879  _c_int00                                                                  
00006901  xdc_runtime_Text_xprintf__I                                               
00006987  ti_sysbios_BIOS_nullFunc__I                                               
00006989  Display_doOpen                                                            
000069c9  GAPRole_createTask                                                        
00006a09  NOROM_DDI16BitfieldRead                                                   
00006a49  RF_getRssi                                                                
00006a89  RingBuf_get                                                               
00006ac9  __aeabi_uidiv                                                             
00006ac9  __aeabi_uidivmod                                                          
00006b47  ti_sysbios_knl_Clock_triggerFunc__I                                       
00006b85  GAP_GetParamValue                                                         
00006bc1  GATTServApp_RegisterService                                               
00006bfd  ICallPlatform_pwrConfigACAction                                           
00006c75  NOROM_OSC_HPOSCRelativeFrequencyOffsetGet                                 
00006cb1  SimpleBLEPeripheral_createTask                                            
00006e8d  PIN_setOutputValue                                                        
00006ec5  UARTCC26XX_swiIntFxn                                                      
00006efd  Util_restartClock                                                         
00006f35  ti_sysbios_family_arm_cc26xx_Timer_getCurrentTick__E                      
00006fdb  ti_sysbios_rom_cortexm_cc26xx_CC26xx_badRomRevision__E                    
00006fdd  GAPBondMgr_SetParameter                                                   
00007011  GAP_SetParamValue                                                         
000070e1  ICall_searchServiceEntity                                                 
00007115  NOROM_DDI32RegWrite                                                       
00007149  NOROM_OSCHF_SwitchToRcOscTurnOffXosc                                      
0000717d  PowerCC26XX_isStableXOSC_HF                                               
000071e5  RF_runCmd                                                                 
00007219  osal_snv_read                                                             
0000724d  osal_snv_write                                                            
0000731d  ti_sysbios_family_arm_cc26xx_Timer_initDevice__I                          
0000744b  ti_sysbios_family_arm_cc26xx_Timer_setNextTick__E                         
000074ad  ICallPlatform_pwrRegisterNotify                                           
0000756d  NOROM_SetupSetAonRtcSubSecInc                                             
0000759d  NOROM_TRNGConfigure                                                       
000075cd  Power_releaseConstraint                                                   
000075fd  Power_setConstraint                                                       
0000762d  ti_sysbios_BIOS_atExitFunc__I                                             
0000765d  ti_sysbios_BIOS_startFunc__I                                              
0000768d  ti_sysbios_family_arm_cc26xx_Timer_setThreshold__I                        
000076bd  xdc_runtime_Text_printVisFxn__I                                           
00007775  HCI_EXT_ConnEventNoticeCmd                                                
000077a1  ICall_heapFree                                                            
00007851  PINCC26XX_setMux                                                          
0000787d  PIN_setConfig                                                             
0000792d  ti_sysbios_knl_Clock_getTicksUntilInterrupt__E                            
000079ad  xdc_runtime_System_putchar__I                                             
000079d7  xdc_runtime_SysCallback_defaultAbort                                      
000079d9  NOROM_AONBatMonTemperatureGetDegC                                         
00007a01  NOROM_RFCDoorbellSendTo                                                   
00007a29  PowerCC26XX_switchXOSC_HF                                                 
00007a51  Power_registerNotify                                                      
00007a79  SafeHapiVoid                                                              
00007aa1  TRNGCC26XX_init                                                           
00007af1  List_put                                                                  
00007b3b  xdc_runtime_SysCallback_defaultExit                                       
00007b85  ti_sysbios_BIOS_registerRTSLock__I                                        
00007ba9  ti_sysbios_BIOS_removeRTSLock__I                                          
00007bcd  ti_sysbios_family_arm_cc26xx_Timer_getMaxTicks__E                         
00007bf1  Display_doPut5                                                            
00007c53  xdc_runtime_SysCallback_defaultPutch                                      
00007c75  Power_unregisterNotify                                                    
00007cb5  ti_sysbios_BIOS_rtsLock__I                                                
00007cd5  ti_sysbios_family_arm_cc26xx_Timer_dynamicStub__E                         
00007cf5  ti_sysbios_knl_Clock_stop__E                                              
00007d15  xdc_runtime_Registry_findById__E                                          
00007d53  PIN_close                                                                 
00007d71  Power_getTransitionLatency                                                
00007dad  NOROM_OSCClockSourceGet                                                   
00007e01  RF_runDirectCmd                                                           
00007e1d  RF_runImmediateCmd                                                        
00007e39  TRNGCC26XX_open                                                           
00007e71  openTRNG                                                                  
00007e8d  ICall_enterCSImpl                                                         
00007ec1  List_remove                                                               
00007ef5  xdc_runtime_System_snprintf__E                                            
00007f0f  DisplayUart_close                                                         
00007f29  GATT_bm_free                                                              
00007f41  ICallPlatform_pwrDispense                                                 
00007f59  ICallPlatform_pwrRequire                                                  
00007fd1  NOROM_AONRTCCurrentCompareValueGet                                        
00007fe9  NOROM_ChipInfo_GetPackageType                                             
00008001  NOROM_OSCHF_TurnOnXosc                                                    
00008019  NOROM_RFCCpeIntGetAndClear                                                
00008031  Power_idleFunc                                                            
00008061  UARTCC26XX_init                                                           
00008091  gapRole_clockHandler                                                      
000080a9  _args_main                                                                
000080c1  __aeabi_lmul                                                              
000080f1  ti_sysbios_BIOS_rtsUnlock__I                                              
00008109  ti_sysbios_knl_Swi_or__E                                                  
00008121  ti_sysbios_rom_cortexm_cc26xx_CC26xx_checkRevision__E                     
00008139  ICall_leaveCSImpl                                                         
00008165  driverTable_fnSpinlock                                                    
0000817b  ti_sysbios_BIOS_exitFunc__I                                               
000081b9  NOROM_AONRTCCurrent64BitValueGet                                          
000081cd  PIN_getInputValue                                                         
00008209  _nop                                                                      
0000820b  _register_unlock                                                          
00008211  _register_lock                                                            
0000821d  strlen                                                                    
00008245  ti_sysbios_knl_Clock_doTick__I                                            
00008259  RF_getCmdOp                                                               
0000826b  RingBuf_construct                                                         
0000827d  xdc_runtime_Startup_exec__I                                               
00008291  GAP_EndDiscoverable                                                       
000082a1  ICallPlatform_pwrGetXOSCStartupTime                                       
000082d1  Util_isActive                                                             
000082e1  ti_sysbios_family_arm_m3_Hwi_post__E                                      
000082e1  ti_sysbios_hal_Hwi_HwiProxy_post__E                                       
000082e1  ti_sysbios_hal_Hwi_post__E                                                
00008301  xdc_runtime_SysCallback_putch__E                                          
00008301  xdc_runtime_System_SupportProxy_putch__E                                  
00008311  xdc_runtime_SysCallback_ready__E                                          
00008311  xdc_runtime_System_SupportProxy_ready__E                                  
00008321  xdc_runtime_System_vsnprintf__E                                           
00008331  ICallPlatform_pwrGetTransitionState                                       
0000833f  ICallPlatform_pwrIsStableXOSCHF                                           
00008385  NOROM_VIMSModeGet                                                         
00008393  __TI_decompress_none                                                      
00008403  ti_sysbios_family_arm_cc26xx_TimestampProvider_get32__E                   
00008403  xdc_runtime_Timestamp_SupportProxy_get32__E__mangled__                    
00008459  NOROM_CPUcpsid                                                            
00008465  NOROM_CPUcpsie                                                            
00008471  Power_getConstraintMask                                                   
0000847d  Power_getDependencyCount                                                  
00008489  Power_getTransitionState                                                  
00008495  __TI_zero_init                                                            
000084ad  ti_sysbios_BIOS_getThreadType__E                                          
000084b9  ti_sysbios_hal_Hwi_Params__init__S                                        
000084c5  ti_sysbios_knl_Swi_getTrigger__E                                          
000084d1  xdc_runtime_Startup_reset__I                                              
000084dd  xdc_runtime_Startup_rtsDone__E                                            
000084e9  ICallPlatform_pwrSwitchXOSCHF                                             
000084fd  List_empty                                                                
00008507  RF_flushCmd                                                               
00008517  SimpleBLEPeripheral_keyChangeHandler                                      
00008547  xdc_runtime_Text_visitRope__I                                             
0000854f  DisplayUart_control                                                       
00008555  DisplayUart_getType                                                       
0000855b  PIN_registerIntCb                                                         
00008561  UARTCC26XX_readPolling                                                    
00008567  UARTCC26XX_writePolling                                                   
000085c7  ti_sysbios_family_arm_m3_Hwi_setFunc__E                                   
000085cd  HwiP_disable                                                              
000085d1  List_next                                                                 
000085d9  Util_startClock                                                           
000085dd  Util_stopClock                                                            
000085e5  ti_sysbios_family_arm_cc26xx_Timer_getCount64__E                          
000085e9  ti_sysbios_knl_Clock_isActive__E                                          
000085ed  xdc_runtime_SysCallback_defaultReady                                      
000085f1  xdc_runtime_System_snprintf_va__F                                         
00008890  resourceDB                                                                
000088dc  rfDriverTable                                                             
000089b0  primaryServiceUUID                                                        
000089b2  characterUUID                                                             
000089b4  gapServiceUUID                                                            
000089b6  gattServiceUUID                                                           
000089b8  secondaryServiceUUID                                                      
000089ba  includeUUID                                                               
000089bc  charExtPropsUUID                                                          
000089be  charUserDescUUID                                                          
000089c0  clientCharCfgUUID                                                         
000089c2  servCharCfgUUID                                                           
000089c4  charFormatUUID                                                            
000089c6  charAggFormatUUID                                                         
000089c8  deviceNameUUID                                                            
000089ca  appearanceUUID                                                            
000089cc  periPrivacyFlagUUID                                                       
000089ce  reconnectAddrUUID                                                         
000089d0  periConnParamUUID                                                         
000089d2  serviceChangedUUID                                                        
000089d4  validRangeUUID                                                            
000089d6  extReportRefUUID                                                          
000089d8  reportRefUUID                                                             
000089dc  BoardGpioInitTable                                                        
00008a08  UARTCC26XX_fxnTable                                                       
00008a30  txPowerTable                                                              
00008a57  Display_defaultParams                                                     
00008a58  UART_defaultParams                                                        
00008a7c  xdc_runtime_Startup_sfxnTab__A                                            
00008aa0  uartCC26XXHWAttrs                                                         
00008ac0  DisplayUart_fxnTable                                                      
00008adc  Display_config                                                            
00008af4  UART_config                                                               
00008b20  displayUartHWAttrs                                                        
00008b34  xdc_runtime_Startup_sfxnRts__A                                            
00008b57  xdc_runtime_Text_charTab__A                                               
00008b58  PowerCC26XX_config                                                        
00008b68  TRNGCC26XX_config                                                         
00008b78  devInfoCBs                                                                
00008b84  simpleProfileCBs                                                          
00008b90  trngDriverTable                                                           
00008b9c  xdc_runtime_Startup_firstFxns__A                                          
00008bb8  txPwrTbl                                                                  
00008bc4  TRNGCC26XXHWAttrs                                                         
00008bcc  ti_sysbios_knl_Clock_tickPeriod__C                                        
00008bd0  ti_sysbios_knl_Clock_triggerClock__C                                      
00008bd4  ti_sysbios_knl_Idle_funcList__A                                           
00008bd8  xdc_runtime_SysCallback_putchFxn__C                                       
00008bdc  xdc_runtime_SysCallback_readyFxn__C                                       
00008be0  xdc_runtime_System_extendFxn__C                                           
00008be4  xdc_runtime_Text_visitRopeFxn__C                                          
00008be8  devInfo11073CertUUID                                                      
00008bea  devInfoFirmwareRevUUID                                                    
00008bec  devInfoHardwareRevUUID                                                    
00008bee  devInfoMfrNameUUID                                                        
00008bf0  devInfoModelNumberUUID                                                    
00008bf2  devInfoPnpIdUUID                                                          
00008bf4  devInfoSerialNumberUUID                                                   
00008bf6  devInfoServUUID                                                           
00008bf8  devInfoSoftwareRevUUID                                                    
00008bfa  devInfoSystemIdUUID                                                       
00008bfc  simpleProfileServUUID                                                     
00008bfe  simpleProfilechar1UUID                                                    
00008c00  simpleProfilechar2UUID                                                    
00008c02  simpleProfilechar3UUID                                                    
00008c04  simpleProfilechar4UUID                                                    
00008c06  simpleProfilechar5UUID                                                    
00008c08  xdc_runtime_Text_registryModsLastId__C                                    
00008c0a  xdc_runtime_Text_unnamedModsLastId__C                                     
00008c10  __TI_static_base__                                                        
00009030  __TI_Handler_Table_Base                                                   
0000903c  __TI_Handler_Table_Limit                                                  
00009070  __TI_CINIT_Base                                                           
000090d0  __TI_CINIT_Limit                                                          
0000e0ea  __checksum_value_CommonROM                                                
0001ffa8  __ccfg                                                                    
10014c00  A1_rw                                                                     
10014c00  __checksum_begin_CommonROM                                                
10014c01  COMMON_ROM_BASE_ADDR                                                      
10014c04  P1_ro                                                                     
10014c05  SCALARMUL_init                                                            
10014ced  SCALARMUL_core                                                            
10015019  SCALARMUL_final                                                           
100150e5  SCALARMUL                                                                 
10015101  SAVEPOINT                                                                 
10015141  GETBIT                                                                    
10015155  GETDIGIT                                                                  
100151a5  GETDIGITL2R                                                               
10015215  SelectReg                                                                 
10015229  ATOMICPATTERN                                                             
100154f5  JACADD                                                                    
1001568d  INVERT                                                                    
10015821  SQUAREMULTIPLYWORD                                                        
1001588c  LUTOPCODE                                                                 
10015894  LUTOPSIGN                                                                 
100158ac  LUTC                                                                      
100158c4  LUTSE                                                                     
100158dc  LUTINCI                                                                   
100158f4  LUTJ                                                                      
1001596c  LUTSTATE                                                                  
100159a9  IMPORTLENGTH                                                              
100159ad  IMPORTMODULUS                                                             
100159d1  IMPORTOPERAND                                                             
10015a11  EXPORTOPERAND                                                             
10015a35  IMPORTDATA                                                                
10015a51  SETOPERAND                                                                
10015a6d  COPY                                                                      
10015a85  ZERO                                                                      
10015a91  SETWORD                                                                   
10015a9d  mSET                                                                      
10015bcd  zSET                                                                      
10015bd5  mINVK                                                                     
10015d19  zADD                                                                      
10015d5d  zSUB                                                                      
10015de9  zMACC32                                                                   
10015e69  zSUB32                                                                    
10015eb5  zADD32                                                                    
10015f0d  zMULT32                                                                   
10015f81  mMULT                                                                     
10016551  mADD                                                                      
1001664d  mSUB                                                                      
10016749  mOUT                                                                      
10016975  ssp_KeyInit_Sw                                                            
10016979  sspAesEncrypt_Sw                                                          
10016985  sspKeyExpansion_Sw                                                        
10016a99  sspAesEncryptKeyExp_Sw                                                    
10016af5  sspAesEncryptBasic_Sw                                                     
10016b79  RoundKey_Sw                                                               
10016c29  AddRoundKeySubBytes_Sw                                                    
10016c45  ShiftRows_Sw                                                              
10016c79  MixColumns_Sw                                                             
10016d05  FFMult_Sw                                                                 
10016d29  sspAesDecrypt_Sw                                                          
10016da1  InvAddRoundKey_Sw                                                         
10016dc9  InvRoundKey_Sw                                                            
10016e8d  InvSubBytes_Sw                                                            
10016ea1  InvShiftRows_Sw                                                           
10016ed5  InvMixColumns_Sw                                                          
10016f58  FFMult2                                                                   
10017058  FFMult3                                                                   
10017158  RCon                                                                      
10017164  Sbox                                                                      
10017264  InvSbox                                                                   
10017365  SSP_CCM_Auth_Sw                                                           
100174fd  SSP_CCM_Encrypt_Sw                                                        
100175ed  SSP_CTR_Encrypt_Sw                                                        
1001767d  SSP_CCM_Decrypt_Sw                                                        
10017771  SSP_CTR_Decrypt_Sw                                                        
10017839  SSP_CCM_InvAuth_Sw                                                        
10017895  SSP_CCM_Auth_Encrypt_Sw                                                   
100178f5  SSP_CCM_InvAuth_Decrypt_Sw                                                
10017959  ECC_allocWorkzone                                                         
10017961  ECC_setWin                                                                
10017969  ECDSA_sign                                                                
10017b01  ECDSA_verif                                                               
10017dbd  eccRom_genKeys                                                            
10017ded  eccRom_genSharedSecret                                                    
10017e39  SHA256_updateW                                                            
10017e75  SHA256_round                                                              
10017ef1  SHA256_nextState                                                          
10017f49  SHA256_saveBuffer                                                         
10017ffd  SHA256_init                                                               
10018019  SHA256_process                                                            
10018089  SHA256_final                                                              
10018129  SHA256_full                                                               
100182ad  RFHAL_InitRfHal                                                           
10018315  RFHAL_AllocRatChan                                                        
1001833d  RFHAL_FreeRatChan                                                         
10018369  RFHAL_MapRatChansToInt                                                    
10018391  RFHAL_RegisterRatChanCallback                                             
100183b9  RFHAL_InitDataQueue                                                       
100183c5  RFHAL_QueueRFDataEntries                                                  
10018415  RFHAL_AddTxDataEntry                                                      
10018485  RFHAL_FreeNextTxDataEntry                                                 
100184a9  RFHAL_AllocDataEntryQueue                                                 
100184c5  RFHAL_FreeDataEntryQueue                                                  
100184cd  RFHAL_GetNextDataEntry                                                    
100184d1  RFHAL_GetTempDataEntry                                                    
100184d5  RFHAL_NextDataEntryDone                                                   
100184f9  RFHAL_AllocDataEntry                                                      
10018549  RFHAL_FreeDataEntry                                                       
10018551  RFHAL_BuildRingBuffer                                                     
100185e1  RFHAL_BuildDataEntryRingBuffer                                            
10018669  RFHAL_BuildLinkedBuffer                                                   
10018755  MB_Init                                                                   
10018799  MB_EnableInts                                                             
100187f5  MB_DisableInts                                                            
10018825  MB_ClearInts                                                              
10018835  MB_EnableHWInts                                                           
10018865  MB_SendCommand                                                            
100188a5  MB_SendCommandSynch                                                       
10018935  MB_ReadMailboxStatus                                                      
1001893d  MB_RegisterIsrCback                                                       
10018945  MB_FwDebugDump                                                            
10018949  mbCmdAckIsr                                                               
1001895d  mbCpe0Isr                                                                 
10018985  mbCpe1Isr                                                                 
100189e5  mbHwIsr                                                                   
10018a19  AesCcm_authEncrypt_Sw                                                     
10018a35  AesCcm_decryptAuth_Sw                                                     
10018a99  Aes_encrypt_Sw                                                            
10018ac5  Aes_decrypt_Sw                                                            
10018b09  AesCcm_getNumBlocks_Sw                                                    
10018b0c  NIST_Curve_P256_p                                                         
10018b30  NIST_Curve_P256_r                                                         
10018b54  NIST_Curve_P256_a                                                         
10018b78  NIST_Curve_P256_b                                                         
10018b9c  NIST_Curve_P256_Gx                                                        
10018bc0  NIST_Curve_P256_Gy                                                        
10018ced  __exit                                                                    
10018d6c  Fill1                                                                     
10019ffc  A3_rw                                                                     
10019ffd  __checksum_end_CommonROM                                                  
10019ffe  A2_rw                                                                     
10019ffe  P1_ro_2                                                                   
10019ffe  __checksum_CommonROM                                                      
1001a001  ti_sysbios_knl_Mailbox_Instance_init__E                                   
1001a0cd  ti_sysbios_knl_Semaphore_pend__E                                          
1001a199  ti_sysbios_heaps_HeapMem_alloc__E                                         
1001a25d  ti_sysbios_knl_Task_Instance_init__E                                      
1001a319  ti_sysbios_family_arm_m3_Hwi_postInit__I                                  
1001a3c9  ti_sysbios_family_arm_m3_Hwi_Instance_init__E                             
1001a469  ti_sysbios_family_arm_cc26xx_Timer_periodicStub__E                        
1001a4fd  ti_sysbios_knl_Task_Instance_finalize__E                                  
1001a591  ti_sysbios_knl_Mailbox_post__E                                            
1001a615  ti_sysbios_knl_Task_postInit__I                                           
1001a699  ti_sysbios_family_arm_m3_Hwi_initNVIC__E                                  
1001a719  ti_sysbios_knl_Clock_startI__E                                            
1001a795  ti_sysbios_heaps_HeapMem_free__E                                          
1001a80d  ti_sysbios_knl_Clock_walkQueueDynamic__E                                  
1001a885  ti_sysbios_knl_Clock_workFunc__E                                          
1001a8fd  ti_sysbios_knl_Mailbox_pend__E                                            
1001a96d  ti_sysbios_knl_Task_sleep__E                                              
1001a9dd  ti_sysbios_knl_Mailbox_Instance_finalize__E                               
1001aa49  ti_sysbios_family_arm_m3_Hwi_dispatchC__I                                 
1001aab1  ti_sysbios_family_arm_m3_Hwi_Object__create__S                            
1001ab15  ti_sysbios_family_arm_m3_Hwi_create                                       
1001ab79  ti_sysbios_hal_Hwi_create                                                 
1001abdd  ti_sysbios_knl_Mailbox_create                                             
1001ac41  ti_sysbios_knl_Semaphore_post__E                                          
1001aca5  ti_sysbios_knl_Swi_Instance_init__E                                       
1001ad05  ti_sysbios_knl_Swi_create                                                 
1001ad61  ti_sysbios_knl_Swi_restoreHwi__E                                          
1001adbd  ti_sysbios_knl_Task_Module_startup__E                                     
1001ae19  ti_sysbios_knl_Task_create                                                
1001ae75  ti_sysbios_knl_Task_startCore__E                                          
1001aed1  ti_sysbios_family_arm_m3_Hwi_Instance_finalize__E                         
1001af29  ti_sysbios_family_arm_m3_Hwi_construct                                    
1001af81  ti_sysbios_knl_Mailbox_construct                                          
1001afd9  ti_sysbios_knl_Swi_run__I                                                 
1001b031  ti_sysbios_knl_Swi_schedule__I                                            
1001b085  ti_sysbios_knl_Swi_construct                                              
1001b0d5  ti_sysbios_knl_Swi_runLoop__I                                             
1001b125  ti_sysbios_knl_Task_construct                                             
1001b175  ti_sysbios_knl_Task_schedule__I                                           
1001b1c1  ti_sysbios_family_arm_m3_Hwi_Module_startup__E                            
1001b209  ti_sysbios_heaps_HeapMem_getStats__E                                      
1001b251  ti_sysbios_knl_Mailbox_Module_startup__E                                  
1001b299  ti_sysbios_family_arm_m3_Hwi_disableInterrupt__E                          
1001b2dd  ti_sysbios_family_arm_m3_Hwi_enableInterrupt__E                           
1001b321  ti_sysbios_knl_Swi_post__E                                                
1001b365  ti_sysbios_knl_Task_allBlockedFunction__I                                 
1001b3a9  ti_sysbios_knl_Task_yield__E                                              
1001b3ed  ti_sysbios_knl_Clock_create                                               
1001b429  ti_sysbios_knl_Task_exit__E                                               
1001b463  ti_sysbios_gates_GateHwi_Instance_init__E                                 
1001b465  ti_sysbios_family_arm_m3_Hwi_getStackInfo__E                              
1001b49d  ti_sysbios_family_arm_m3_TaskSupport_start__E                             
1001b4d5  ti_sysbios_heaps_HeapMem_Instance_init__E                                 
1001b50d  ti_sysbios_knl_Clock_Instance_init__E                                     
1001b545  ti_sysbios_heaps_HeapMem_init__I                                          
1001b579  ti_sysbios_knl_Clock_construct                                            
1001b5ad  ti_sysbios_knl_Semaphore_create                                           
1001b5e1  ti_sysbios_knl_Swi_restore__E                                             
1001b615  ti_sysbios_knl_Task_blockI__E                                             
1001b649  ti_sysbios_gates_GateMutex_Object__create__S                              
1001b679  ti_sysbios_gates_GateMutex_create                                         
1001b6a9  ti_sysbios_gates_GateMutex_enter__E                                       
1001b6d9  ti_sysbios_knl_Clock_getTicks__E                                          
1001b709  ti_sysbios_knl_Semaphore_construct                                        
1001b739  ti_sysbios_knl_Task_processVitalTaskFlag__I                               
1001b769  ti_sysbios_family_arm_cc26xx_Timer_postInit__I                            
1001b795  ti_sysbios_family_arm_cc26xx_Timer_startup__E                             
1001b795  ti_sysbios_knl_Clock_TimerProxy_startup__E                                
1001b7c1  ti_sysbios_family_arm_m3_Hwi_Object__get__S                               
1001b7ed  ti_sysbios_gates_GateMutex_construct                                      
1001b819  ti_sysbios_hal_Hwi_initStack                                              
1001b845  ti_sysbios_heaps_HeapMem_Object__create__S                                
1001b871  ti_sysbios_heaps_HeapMem_Object__get__S                                   
1001b89d  ti_sysbios_knl_Mailbox_Object__get__S                                     
1001b8c9  ti_sysbios_knl_Mailbox_postInit__I                                        
1001b8f5  ti_sysbios_knl_Queue_construct                                            
1001b921  ti_sysbios_knl_Queue_create                                               
1001b94d  ti_sysbios_knl_Semaphore_pendTimeout__I                                   
1001b979  ti_sysbios_knl_Swi_Object__get__S                                         
1001b9a5  ti_sysbios_knl_Task_unblockI__E                                           
1001b9d1  ti_sysbios_family_arm_cc26xx_TimestampProvider_get64__E                   
1001b9d1  xdc_runtime_Timestamp_SupportProxy_get64__E                               
1001b9d1  xdc_runtime_Timestamp_get64__E                                            
1001b9f9  ti_sysbios_hal_Hwi_Instance_init__E                                       
1001ba21  ti_sysbios_knl_Clock_addI__E                                              
1001ba49  ti_sysbios_knl_Task_restore__E                                            
1001ba71  ti_sysbios_family_arm_cc26xx_Timer_Module_startup__E                      
1001ba95  ti_sysbios_gates_GateHwi_Object__create__S                                
1001bab9  ti_sysbios_BIOS_RtsGateProxy_Object__delete__S                            
1001bab9  ti_sysbios_gates_GateMutex_Object__delete__S                              
1001bab9  ti_sysbios_heaps_HeapMem_Module_GateProxy_Object__delete__S               
1001badd  ti_sysbios_knl_Clock_Object__delete__S                                    
1001bb01  ti_sysbios_knl_Semaphore_Instance_init__E                                 
1001bb25  ti_sysbios_knl_Semaphore_Object__delete__S                                
1001bb49  ti_sysbios_family_arm_cc26xx_Timer_Module__startupDone__S                 
1001bb69  ti_sysbios_family_arm_cc26xx_TimestampProvider_Module_startup__E          
1001bb89  ti_sysbios_family_arm_m3_Hwi_Module__startupDone__S                       
1001bba9  ti_sysbios_family_arm_m3_Hwi_Object__delete__S                            
1001bba9  ti_sysbios_hal_Hwi_HwiProxy_Object__delete__S                             
1001bbc9  ti_sysbios_family_arm_m3_Hwi_excHandler__I                                
1001bbe9  ti_sysbios_gates_GateHwi_Handle__label__S                                 
1001bbe9  xdc_runtime_System_Module_GateProxy_Handle__label__S                      
1001bc09  ti_sysbios_gates_GateHwi_Object__delete__S                                
1001bc09  xdc_runtime_System_Module_GateProxy_Object__delete__S                     
1001bc29  ti_sysbios_BIOS_RtsGateProxy_Handle__label__S                             
1001bc29  ti_sysbios_gates_GateMutex_Handle__label__S                               
1001bc29  ti_sysbios_heaps_HeapMem_Module_GateProxy_Handle__label__S                
1001bc49  ti_sysbios_gates_GateMutex_Object__destruct__S                            
1001bc69  ti_sysbios_hal_Hwi_Object__delete__S                                      
1001bc89  ti_sysbios_heaps_HeapMem_Handle__label__S                                 
1001bc89  xdc_runtime_Memory_HeapProxy_Handle__label__S                             
1001bca9  ti_sysbios_heaps_HeapMem_Object__delete__S                                
1001bca9  xdc_runtime_Memory_HeapProxy_Object__delete__S                            
1001bcc9  ti_sysbios_knl_Clock_Module_startup__E                                    
1001bce9  ti_sysbios_knl_Clock_Object__destruct__S                                  
1001bd09  ti_sysbios_knl_Idle_run__E                                                
1001bd29  ti_sysbios_knl_Mailbox_Object__delete__S                                  
1001bd49  ti_sysbios_knl_Queue_Object__delete__S                                    
1001bd69  ti_sysbios_knl_Queue_Object__get__S                                       
1001bd89  ti_sysbios_knl_Semaphore_Object__destruct__S                              
1001bda9  ti_sysbios_knl_Swi_Object__delete__S                                      
1001bdc9  ti_sysbios_knl_Task_Object__delete__S                                     
1001bde9  ti_sysbios_knl_Task_Object__get__S                                        
1001be09  ti_sysbios_knl_Task_enter__I                                              
1001be29  ti_sysbios_knl_Task_restoreHwi__E                                         
1001be49  ti_sysbios_hal_Hwi_HwiProxy_create                                        
1001be67  ti_sysbios_knl_Clock_logTick__E                                           
1001be69  ti_sysbios_family_arm_m3_Hwi_Object__destruct__S                          
1001be85  ti_sysbios_family_arm_m3_Hwi_setPriority__E                               
1001bea1  ti_sysbios_gates_GateMutex_Instance_init__E                               
1001bebd  ti_sysbios_knl_Clock_scheduleNextTick__E                                  
1001bed9  ti_sysbios_knl_Mailbox_Object__destruct__S                                
1001bef5  ti_sysbios_knl_Queue_Object__destruct__S                                  
1001bf11  ti_sysbios_knl_Queue_get__E                                               
1001bf2d  ti_sysbios_knl_Queue_put__E                                               
1001bf49  ti_sysbios_knl_Swi_Object__destruct__S                                    
1001bf65  ti_sysbios_knl_Task_Object__destruct__S                                   
1001bf81  ti_sysbios_knl_Task_sleepTimeout__I                                       
1001bf9b  ti_sysbios_knl_Swi_Instance_finalize__E                                   
1001bf9d  ti_sysbios_gates_GateMutex_leave__E                                       
1001bfb5  ti_sysbios_knl_Task_unblock__E                                            
1001bfcd  ti_sysbios_knl_Clock_Instance_finalize__E                                 
1001bfe3  ti_sysbios_knl_Clock_start__E                                             
1001bff9  ti_sysbios_BIOS_getCpuFreq__E                                             
1001c00d  ti_sysbios_family_arm_m3_Hwi_switchFromBootStack__E                       
1001c021  ti_sysbios_hal_Hwi_Module_startup__E                                      
1001c035  ti_sysbios_BIOS_exit__E                                                   
1001c045  ti_sysbios_BIOS_setThreadType__E                                          
1001c055  ti_sysbios_BIOS_start__E                                                  
1001c065  ti_sysbios_family_arm_m3_Hwi_plug__E                                      
1001c075  ti_sysbios_gates_GateMutex_Instance_finalize__E                           
1001c085  ti_sysbios_hal_Hwi_HwiProxy_Object__create__S                             
1001c095  ti_sysbios_knl_Clock_TimerProxy_getCurrentTick__E                         
1001c0a5  ti_sysbios_knl_Clock_TimerProxy_getMaxTicks__E                            
1001c0b5  ti_sysbios_knl_Clock_TimerProxy_setNextTick__E                            
1001c0c5  ti_sysbios_knl_Semaphore_Instance_finalize__E                             
1001c0d5  ti_sysbios_knl_Swi_disable__E                                             
1001c0e5  ti_sysbios_knl_Swi_enabled__E                                             
1001c0f5  ti_sysbios_knl_Task_disable__E                                            
1001c105  ti_sysbios_heaps_HeapMem_restore__E                                       
1001c113  ti_sysbios_knl_Queue_empty__E                                             
1001c121  ti_sysbios_knl_Queue_remove__E                                            
1001c12f  ti_sysbios_family_arm_cc26xx_TimestampProvider_getFreq__E                 
1001c12f  xdc_runtime_Timestamp_SupportProxy_getFreq__E                             
1001c12f  xdc_runtime_Timestamp_getFreq__E                                          
1001c13d  ti_sysbios_family_arm_m3_Hwi_Params__init__S                              
1001c13d  ti_sysbios_hal_Hwi_HwiProxy_Params__init__S                               
1001c149  ti_sysbios_family_arm_m3_Hwi_disableFxn__E                                
1001c155  ti_sysbios_family_arm_m3_Hwi_enableFxn__E                                 
1001c161  ti_sysbios_family_arm_m3_TaskSupport_getStackAlignment__E                 
1001c16d  ti_sysbios_gates_GateHwi_enter__E                                         
1001c179  ti_sysbios_BIOS_RtsGateProxy_Params__init__S                              
1001c179  ti_sysbios_gates_GateMutex_Params__init__S                                
1001c179  ti_sysbios_heaps_HeapMem_Module_GateProxy_Params__init__S                 
1001c185  ti_sysbios_knl_Clock_Params__init__S                                      
1001c191  ti_sysbios_knl_Clock_getTimerHandle__E                                    
1001c19d  ti_sysbios_knl_Mailbox_Params__init__S                                    
1001c1a9  ti_sysbios_knl_Queue_dequeue__E                                           
1001c1b5  ti_sysbios_knl_Queue_enqueue__E                                           
1001c1c1  ti_sysbios_knl_Semaphore_Params__init__S                                  
1001c1cd  ti_sysbios_knl_Swi_Params__init__S                                        
1001c1d9  ti_sysbios_knl_Task_Params__init__S                                       
1001c1e5  ti_sysbios_knl_Task_self__E                                               
1001c1f1  ti_sysbios_hal_Hwi_Instance_finalize__E                                   
1001c1fb  ti_sysbios_family_arm_m3_Hwi_doSwiRestore__I                              
1001c203  ti_sysbios_family_arm_m3_Hwi_startup__E                                   
1001c20b  ti_sysbios_knl_Idle_loop__E                                               
1001c213  ti_sysbios_family_arm_m3_Hwi_doTaskRestore__I                             
1001c219  ti_sysbios_family_arm_m3_Hwi_restoreFxn__E                                
1001c21f  ti_sysbios_gates_GateHwi_leave__E                                         
1001c22b  ti_sysbios_knl_Queue_Instance_init__E                                     
1001c231  ti_sysbios_knl_Queue_elemClear__E                                         
1001c237  ti_sysbios_knl_Swi_Module_startup__E                                      
1001c23d  ti_sysbios_knl_Swi_startup__E                                             
1001c243  ti_sysbios_knl_Task_enable__E                                             
1001c249  ti_sysbios_BIOS_RtsGateProxy_enter__E                                     
1001c24d  ti_sysbios_BIOS_RtsGateProxy_leave__E                                     
1001c251  ti_sysbios_family_arm_cc26xx_Timer_getExpiredTicks__E                     
1001c255  ti_sysbios_family_arm_cc26xx_Timer_getPeriod__E                           
1001c259  ti_sysbios_family_arm_cc26xx_Timer_setPeriod__E                           
1001c25d  ti_sysbios_family_arm_m3_Hwi_delete                                       
1001c261  ti_sysbios_family_arm_m3_Hwi_destruct                                     
1001c265  ti_sysbios_family_arm_m3_TaskSupport_Module__startupDone__S               
1001c269  ti_sysbios_gates_GateHwi_query__E                                         
1001c269  xdc_runtime_System_Module_GateProxy_query__E                              
1001c26d  ti_sysbios_gates_GateMutex_delete                                         
1001c271  ti_sysbios_gates_GateMutex_destruct                                       
1001c275  ti_sysbios_BIOS_RtsGateProxy_query__E                                     
1001c275  ti_sysbios_gates_GateMutex_query__E                                       
1001c275  ti_sysbios_heaps_HeapMem_Module_GateProxy_query__E                        
1001c279  ti_sysbios_hal_Hwi_HwiProxy_Module__startupDone__S                        
1001c27d  ti_sysbios_hal_Hwi_HwiProxy_delete                                        
1001c281  ti_sysbios_hal_Hwi_HwiProxy_disableInterrupt__E                           
1001c281  ti_sysbios_hal_Hwi_disableInterrupt__E                                    
1001c285  ti_sysbios_hal_Hwi_HwiProxy_enableInterrupt__E                            
1001c285  ti_sysbios_hal_Hwi_enableInterrupt__E                                     
1001c289  ti_sysbios_hal_Hwi_HwiProxy_getStackInfo__E                               
1001c289  ti_sysbios_hal_Hwi_getStackInfo__E                                        
1001c28d  ti_sysbios_hal_Hwi_HwiProxy_startup__E                                    
1001c28d  ti_sysbios_hal_Hwi_startup__E                                             
1001c291  ti_sysbios_hal_Hwi_HwiProxy_switchFromBootStack__E                        
1001c295  ti_sysbios_hal_Hwi_delete                                                 
1001c299  ti_sysbios_hal_Hwi_switchFromBootStack__E                                 
1001c29d  ti_sysbios_heaps_HeapMem_Module_GateProxy_enter__E                        
1001c2a1  ti_sysbios_heaps_HeapMem_Module_GateProxy_leave__E                        
1001c2a5  ti_sysbios_heaps_HeapMem_isBlocking__E                                    
1001c2a9  ti_sysbios_knl_Clock_TimerProxy_Module__startupDone__S                    
1001c2ad  ti_sysbios_knl_Clock_TimerProxy_getExpiredTicks__E                        
1001c2b1  ti_sysbios_knl_Clock_TimerProxy_getPeriod__E                              
1001c2b5  ti_sysbios_knl_Clock_delete                                               
1001c2b9  ti_sysbios_knl_Clock_destruct                                             
1001c2bd  ti_sysbios_knl_Clock_removeI__E                                           
1001c2c1  ti_sysbios_knl_Clock_setTimeout__E                                        
1001c2c5  ti_sysbios_knl_Mailbox_delete                                             
1001c2c9  ti_sysbios_knl_Mailbox_destruct                                           
1001c2cd  ti_sysbios_knl_Queue_delete                                               
1001c2d1  ti_sysbios_knl_Queue_destruct                                             
1001c2d5  ti_sysbios_knl_Queue_head__E                                              
1001c2d9  ti_sysbios_knl_Queue_next__E                                              
1001c2dd  ti_sysbios_knl_Semaphore_delete                                           
1001c2e1  ti_sysbios_knl_Semaphore_destruct                                         
1001c2e5  ti_sysbios_knl_Swi_delete                                                 
1001c2e9  ti_sysbios_knl_Swi_destruct                                               
1001c2ed  ti_sysbios_knl_Swi_postInit__I                                            
1001c2f1  ti_sysbios_knl_Task_SupportProxy_Module__startupDone__S                   
1001c2f5  ti_sysbios_knl_Task_SupportProxy_getStackAlignment__E                     
1001c2f9  ti_sysbios_knl_Task_SupportProxy_start__E                                 
1001c2fd  ti_sysbios_knl_Task_SupportProxy_swap__E                                  
1001c301  ti_sysbios_knl_Task_delete                                                
1001c305  ti_sysbios_knl_Task_destruct                                              
1001c309  ti_sysbios_knl_Task_startup__E                                            
1001c30d  xdc_runtime_Startup_startMods__I                                          
1001c405  xdc_runtime_Core_createObject__I                                          
1001c487  xdc_runtime_Error_policySpin__E                                           
1001c489  xdc_runtime_Memory_alloc__E                                               
1001c4f9  xdc_runtime_Core_deleteObject__I                                          
1001c559  xdc_runtime_Startup_exec__E                                               
1001c5a9  xdc_runtime_Assert_raise__I                                               
1001c5f1  xdc_runtime_Core_assignParams__I                                          
1001c639  xdc_runtime_Core_constructObject__I                                       
1001c681  xdc_runtime_System_atexit__E                                              
1001c6b9  xdc_runtime_System_processAtExit__E                                       
1001c6ed  xdc_runtime_Core_assignLabel__I                                           
1001c71d  xdc_runtime_Text_cordText__E                                              
1001c749  xdc_runtime_System_abort__E                                               
1001c769  xdc_runtime_Error_raiseX__E                                               
1001c785  xdc_runtime_Memory_valloc__E                                              
1001c7a1  xdc_runtime_Core_destructObject__I                                        
1001c7b9  xdc_runtime_Error_check__E                                                
1001c7d1  xdc_runtime_System_exit__E                                                
1001c7e9  xdc_runtime_Text_ropeText__E                                              
1001c801  xdc_runtime_Memory_free__E                                                
1001c811  xdc_runtime_SysCallback_abort__E                                          
1001c821  xdc_runtime_SysCallback_exit__E                                           
1001c831  xdc_runtime_Timestamp_SupportProxy_get32__E                               
1001c831  xdc_runtime_Timestamp_get32__E                                            
1001c841  xdc_runtime_Error_init__E                                                 
1001c84d  xdc_runtime_Memory_calloc__E                                              
1001c859  xdc_runtime_Memory_getMaxDefaultTypeAlign__E                              
1001c879  xdc_runtime_Gate_leaveSystem__E                                           
1001c87f  xdc_runtime_System_Module_startup__E                                      
1001c885  xdc_runtime_Gate_enterSystem__E                                           
1001c889  xdc_runtime_Memory_HeapProxy_alloc__E                                     
1001c88d  xdc_runtime_Memory_HeapProxy_free__E                                      
1001c891  xdc_runtime_System_Module_GateProxy_enter__E                              
1001c895  xdc_runtime_System_Module_GateProxy_leave__E                              
1001c899  xdc_runtime_System_abortSpin__E                                           
1001c89b  xdc_runtime_System_exitSpin__E                                            
1001c89d  ti_sysbios_family_arm_m3_Hwi_dispatch__I                                  
1001c96d  ti_sysbios_family_arm_m3_TaskSupport_buildTaskStack                       
1001c9b9  ti_sysbios_family_arm_m3_Hwi_initStacks__E                                
1001ca01  ti_sysbios_family_arm_m3_Hwi_excHandlerAsm__I                             
1001ca21  ti_sysbios_family_xxx_Hwi_switchAndRunFunc                                
1001ca3f  ti_sysbios_family_arm_m3_Hwi_pendSV__I                                    
1001ca57  ti_sysbios_family_arm_m3_Hwi_return                                       
1001ca59  ti_sysbios_family_arm_m3_TaskSupport_glue                                 
1001ca69  ti_sysbios_family_arm_m3_TaskSupport_swap__E                              
1001ca71  ti_sysbios_knl_Task_swapReturn                                            
1001ca9b  ti_sysbios_rom_cortexm_cc26xx_CC26xx_getRevision__E                       
20000000  ti_sysbios_family_arm_m3_Hwi_ramVectors                                   
20000100  ti_sysbios_knl_Task_Module__state__V                                      
20000144  ti_sysbios_family_arm_m3_Hwi_Module__state__V                             
20000178  ti_sysbios_knl_Clock_Module__state__V                                     
200001a4  ti_sysbios_BIOS_Module__state__V                                          
200001c8  ti_sysbios_knl_Swi_Module__state__V                                       
200001e4  ti_sysbios_family_arm_cc26xx_Timer_Module__state__V                       
200001ec  ti_sysbios_family_arm_cc26xx_TimestampProvider_Module__state__V           
200001f0  xdc_runtime_Startup_Module__state__V                                      
200001f8  xdc_runtime_System_Module__state__V                                       
20000200  xdc_runtime_Memory_Module__state__V                                       
20000208  linkDBNumConns                                                            
2000031c  gapRoleTask                                                               
2000036c  gapRoleTaskStack                                                          
20000590  dispHandle                                                                
2000061c  sbpTask                                                                   
2000066c  sbpTaskStack                                                              
20000e10  PowerCC26XX_module                                                        
20000f20  ICall_dispatcher                                                          
20000f28  ICall_enterCriticalSection                                                
20000f2c  ICall_leaveCriticalSection                                                
20000f44  HEAPMGR_SIZE                                                              
20000fbc  ledPinTable                                                               
2000101c  rfRegTbl                                                                  
20001074  ti_sysbios_knl_Task_Object__table__V                                      
200010c4  appKeyChangeHandler                                                       
200010c8  hKeyPins                                                                  
200010cc  keyPinsCfg                                                                
200010d8  keyPins                                                                   
20001108  ti_sysbios_family_arm_cc26xx_Timer_Object__table__V                       
20001150  ti_sysbios_gates_GateMutex_Object__table__V                               
20001188  ti_sysbios_knl_Swi_Module_State_0_readyQ__A                               
200011b8  ti_sysbios_knl_Swi_Object__table__V                                       
200011e8  ti_sysbios_knl_Task_Module_State_0_readyQ__A                              
20001218  user0Cfg                                                                  
20001248  ti_sysbios_knl_Clock_Object__table__V                                     
20001268  ti_sysbios_family_arm_m3_Hwi_Object__table__V                             
20001280  ti_sysbios_heaps_HeapMem_Object__table__V                                 
200012ee  ti_sysbios_family_arm_m3_Hwi_Module_State_0_excActive__A                  
200012f0  __TI_cleanup_ptr                                                          
200012f4  __TI_dtors_ptr                                                            
200012f8  __TI_enable_exit_profile_output                                           
200012fc  lastAppOpcodeSent                                                         
20001300  pfnBMAlloc                                                                
20001304  pfnBMFree                                                                 
2000131c  _lock                                                                     
20001320  _unlock                                                                   
20001324  ti_sysbios_family_arm_m3_Hwi_Module__root__V                              
2000132c  ti_sysbios_gates_GateHwi_Module__root__V                                  
20001334  ti_sysbios_gates_GateMutex_Module__root__V                                
2000133c  ti_sysbios_hal_Hwi_Module__root__V                                        
20001344  ti_sysbios_heaps_HeapMem_Module__root__V                                  
2000134c  ti_sysbios_knl_Clock_Module__root__V                                      
20001354  ti_sysbios_knl_Mailbox_Module__root__V                                    
2000135c  ti_sysbios_knl_Queue_Module__root__V                                      
20001364  ti_sysbios_knl_Semaphore_Module__root__V                                  
2000136c  ti_sysbios_knl_Swi_Module__root__V                                        
20001374  ti_sysbios_knl_Task_Module__root__V                                       
2000137c  xdc_runtime_Registry_Module__state__V                                     
20001390  appAssertCback                                                            
20001394  main_func_sp                                                              
20001398  ti_sysbios_family_arm_m3_Hwi_Module_State_0_excContext__A                 
2000139c  ti_sysbios_family_arm_m3_Hwi_Module_State_0_excStack__A                   
200013a0  ti_sysbios_knl_Task_Module_State_0_idleTask__A                            
200013a8  ti_sysbios_heaps_HeapMem_Instance_State_0_buf__A                          
20001a28  ti_sysbios_knl_Task_Instance_State_0_stack__A                             
20001c28  uartCC26XXObjects                                                         
20001d54  PIN_NumPins                                                               
20001de8  PIN_HandleTable                                                           
20001e64  ti_sysbios_family_arm_m3_Hwi_dispatchTable                                
20001fac  displayUartObject                                                         
20002000  trngCC26XXObjects                                                         
20002006  driverlib_release_0_47020                                                 
20002007  heapStart                                                                 
20003f20  __stack                                                                   
20003f20  heapEnd                                                                   
20004320  __STACK_END                                                               
20004320  __STACK_TOP                                                               
20004f2c  A4_rw                                                                     
20004f2c  COMMON_RAM_BASE_ADDR                                                      
20004f40  P2_rw                                                                     
20004f40  P2_s0                                                                     
20004f40  eccRom_windowSize                                                         
20004f44  eccRom_workzone                                                           
20004f48  eccRom_param_p                                                            
20004f4c  eccRom_param_r                                                            
20004f50  eccRom_param_a                                                            
20004f54  inScalar                                                                  
20004f58  inPointX                                                                  
20004f5c  inPointY                                                                  
20004f60  outPointX                                                                 
20004f64  outPointY                                                                 
20004f68  SCAL                                                                      
20004f6c  EXPX                                                                      
20004f70  EXPY                                                                      
20004f74  EXPZ                                                                      
20004f78  EXPW                                                                      
20004f7c  ACCX                                                                      
20004f80  ACCY                                                                      
20004f84  ACCZ                                                                      
20004f88  TMP1                                                                      
20004f8c  TMP2                                                                      
20004f90  TMP3                                                                      
20004f94  TMP4                                                                      
20004f98  TMP5                                                                      
20004f9c  TMP6                                                                      
20004fa0  eccRom_param_Gx                                                           
20004fa4  eccRom_param_Gy                                                           
20004fa8  eccRom_param_b                                                            
20004fac  P2_zi                                                                     
20004fac  ratChanInfo                                                               
20004fcc  fwInfoCmd                                                                 
20004fd8  MSBMOD                                                                    
20004fdc  aux64                                                                     
20004fe4  MOD                                                                       
20004fe8  LEN                                                                       
20004ffc  pSspAesEncrypt_Sw                                                         
e000e000  ti_sysbios_family_arm_m3_Hwi_nvic                                         
ffffffff  __TI_pprof_out_hndl                                                       
ffffffff  __TI_prof_data_size                                                       
ffffffff  __TI_prof_data_start                                                      
ffffffff  __binit__                                                                 
ffffffff  __c_args__                                                                
ffffffff  binit                                                                     
UNDEFED   HwiP_restore                                                              
UNDEFED   SHT$$INIT_ARRAY$$Base                                                     
UNDEFED   SHT$$INIT_ARRAY$$Limit                                                    
UNDEFED   ti_sysbios_BIOS_RtsGateProxy_Handle__label__S__mangled__                  
UNDEFED   ti_sysbios_BIOS_RtsGateProxy_Object__delete__S__mangled__                 
UNDEFED   ti_sysbios_BIOS_RtsGateProxy_Params__init__S__mangled__                   
UNDEFED   ti_sysbios_BIOS_RtsGateProxy_query__E__mangled__                          
UNDEFED   ti_sysbios_hal_Hwi_HwiProxy_Module__startupDone__S__mangled__             
UNDEFED   ti_sysbios_hal_Hwi_HwiProxy_Object__delete__S__mangled__                  
UNDEFED   ti_sysbios_hal_Hwi_HwiProxy_Params__init__S__mangled__                    
UNDEFED   ti_sysbios_hal_Hwi_HwiProxy_disableInterrupt__E__mangled__                
UNDEFED   ti_sysbios_hal_Hwi_HwiProxy_enableInterrupt__E__mangled__                 
UNDEFED   ti_sysbios_hal_Hwi_HwiProxy_getStackInfo__E__mangled__                    
UNDEFED   ti_sysbios_hal_Hwi_HwiProxy_startup__E__mangled__                         
UNDEFED   ti_sysbios_hal_Hwi_HwiProxy_switchFromBootStack__E__mangled__             
UNDEFED   ti_sysbios_hal_Hwi_disableInterrupt__E                                    
UNDEFED   ti_sysbios_hal_Hwi_enableInterrupt__E                                     
UNDEFED   ti_sysbios_hal_Hwi_getStackInfo__E                                        
UNDEFED   ti_sysbios_hal_Hwi_startup__E                                             
UNDEFED   ti_sysbios_hal_Hwi_switchFromBootStack__E                                 
UNDEFED   ti_sysbios_heaps_HeapMem_Module_GateProxy_Handle__label__S__mangled__     
UNDEFED   ti_sysbios_heaps_HeapMem_Module_GateProxy_Object__delete__S__mangled__    
UNDEFED   ti_sysbios_heaps_HeapMem_Module_GateProxy_Params__init__S__mangled__      
UNDEFED   ti_sysbios_heaps_HeapMem_Module_GateProxy_query__E__mangled__             
UNDEFED   ti_sysbios_knl_Clock_TimerProxy_Module__startupDone__S__mangled__         
UNDEFED   ti_sysbios_knl_Clock_TimerProxy_startup__E__mangled__                     
UNDEFED   ti_sysbios_knl_Task_SupportProxy_Module__startupDone__S__mangled__        
UNDEFED   ti_sysbios_knl_Task_SupportProxy_getStackAlignment__E__mangled__          
UNDEFED   ti_sysbios_knl_Task_SupportProxy_start__E__mangled__                      
UNDEFED   ti_sysbios_knl_Task_SupportProxy_swap__E__mangled__                       
UNDEFED   xdc_runtime_Main_Module_GateProxy_Handle__label__S                        
UNDEFED   xdc_runtime_Main_Module_GateProxy_Object__delete__S                       
UNDEFED   xdc_runtime_Main_Module_GateProxy_query__E                                
UNDEFED   xdc_runtime_Memory_HeapProxy_Handle__label__S__mangled__                  
UNDEFED   xdc_runtime_Memory_HeapProxy_Object__delete__S__mangled__                 
UNDEFED   xdc_runtime_System_Module_GateProxy_Handle__label__S__mangled__           
UNDEFED   xdc_runtime_System_Module_GateProxy_Object__delete__S__mangled__          
UNDEFED   xdc_runtime_System_Module_GateProxy_query__E__mangled__                   
UNDEFED   xdc_runtime_System_SupportProxy_abort__E                                  
UNDEFED   xdc_runtime_System_SupportProxy_exit__E                                   
UNDEFED   xdc_runtime_Timestamp_SupportProxy_get64__E__mangled__                    
UNDEFED   xdc_runtime_Timestamp_SupportProxy_getFreq__E__mangled__                  
UNDEFED   xdc_runtime_Timestamp_get32__E                                            
UNDEFED   xdc_runtime_Timestamp_get64__E                                            
UNDEFED   xdc_runtime_Timestamp_getFreq__E                                          

[1056 symbols]
